(dp0
S'1200'
p1
(lp2
S'30'
p3
aS'36'
p4
asS'1175'
p5
(lp6
S'300'
p7
aS'299'
p8
asS'1383'
p9
(lp10
S'290'
p11
aS'300'
p12
asS'1269'
p13
(lp14
S'178'
p15
aS'300'
p16
asS'1403'
p17
(lp18
S'254'
p19
aS'300'
p20
asS'1183'
p21
(lp22
S'204'
p23
aS'297'
p24
asS'1268'
p25
(lp26
S'173'
p27
aS'186'
p28
asS'1321'
p29
(lp30
S'143'
p31
aS'257'
p32
asS'1256'
p33
(lp34
S'187'
p35
aS'296'
p36
asS'1144'
p37
(lp38
S'178'
p39
aS'290'
p40
asS'1218'
p41
(lp42
S'160'
p43
aS'219'
p44
asS'1145'
p45
(lp46
S'260'
p47
aS'300'
p48
asS'344'
p49
(lp50
S'162'
p51
aS'278'
p52
asS'0'
p53
(lp54
S'1'
p55
aS'2'
p56
asS'346'
p57
(lp58
S'163'
p59
aS'236'
p60
asS'347'
p61
(lp62
S'118'
p63
aS'215'
p64
asS'340'
p65
(lp66
S'130'
p67
aS'298'
p68
asS'341'
p69
(lp70
S'265'
p71
aS'300'
p72
asS'342'
p73
(lp74
S'292'
p75
aS'300'
p76
asS'343'
p77
(lp78
S'246'
p79
aS'300'
p80
asS'810'
p81
(lp82
S'330'
p83
aS'300'
p84
asS'811'
p85
(lp86
S'126'
p87
aS'207'
p88
asS'812'
p89
(lp90
S'235'
p91
aS'300'
p92
asS'813'
p93
(lp94
S'33'
p95
aS'30'
p96
asS'348'
p97
(lp98
S'289'
p99
aS'300'
p100
asS'349'
p101
(lp102
S'136'
p103
aS'205'
p104
asS'816'
p105
(lp106
S'154'
p107
aS'249'
p108
asS'817'
p109
(lp110
S'151'
p111
aS'299'
p112
asS'595'
p113
(lp114
S'271'
p115
aS'252'
p116
asS'1149'
p117
(lp118
S'267'
p119
aS'296'
p120
asS'1399'
p121
(lp122
S'211'
p123
aS'198'
p124
asS'719'
p125
(lp126
S'232'
p127
aS'298'
p128
asS'717'
p129
(lp130
S'329'
p131
aS'300'
p132
asS'716'
p133
(lp134
S'267'
p135
aS'300'
p136
asS'715'
p137
(lp138
S'418'
p139
aS'300'
p140
asS'714'
p141
(lp142
S'334'
p143
aS'300'
p144
asS'712'
p145
(lp146
S'295'
p147
aS'300'
p148
asS'711'
p149
(lp150
S'156'
p151
aS'253'
p152
asS'710'
p153
(lp154
S'252'
p155
aS'300'
p156
asS'915'
p157
(lp158
S'244'
p159
aS'300'
p160
asS'914'
p161
(lp162
S'339'
p163
aS'300'
p164
asS'606'
p165
(lp166
S'243'
p167
aS'300'
p168
asS'1264'
p169
(lp170
S'288'
p171
aS'299'
p172
asS'917'
p173
(lp174
S'232'
p175
aS'300'
p176
asS'594'
p177
(lp178
S'227'
p179
aS'296'
p180
asS'736'
p181
(lp182
S'268'
p183
aS'295'
p184
asS'916'
p185
(lp186
S'152'
p187
aS'298'
p188
asS'1182'
p189
(lp190
S'174'
p191
aS'266'
p192
asS'1061'
p193
(lp194
S'219'
p195
aS'300'
p196
asS'911'
p197
(lp198
S'231'
p199
aS'299'
p200
asS'1063'
p201
(lp202
S'204'
p203
aS'300'
p204
asS'1065'
p205
(lp206
S'288'
p207
aS'300'
p208
asS'1064'
p209
(lp210
S'302'
p211
aS'300'
p212
asS'619'
p213
(lp214
S'217'
p215
aS'300'
p216
asS'910'
p217
(lp218
S'300'
p219
aS'300'
p220
asS'913'
p221
(lp222
S'254'
p223
aS'300'
p224
asS'298'
p225
(lp226
S'404'
p227
aS'300'
p228
asS'299'
p229
(lp230
S'300'
p231
aS'300'
p232
asS'296'
p233
(lp234
S'123'
p235
aS'254'
p236
asS'297'
p237
(lp238
S'261'
p239
aS'300'
p240
asS'294'
p241
(lp242
S'255'
p243
aS'300'
p244
asS'295'
p245
(lp246
S'351'
p247
aS'300'
p248
asS'292'
p249
(lp250
S'210'
p251
aS'300'
p252
asS'293'
p253
(lp254
S'196'
p255
aS'247'
p256
asS'290'
p257
(lp258
S'408'
p259
aS'300'
p260
asS'591'
p261
(lp262
S'250'
p263
aS'294'
p264
asS'590'
p265
(lp266
S'258'
p267
aS'300'
p268
asS'593'
p269
(lp270
S'133'
p271
aS'207'
p272
asS'592'
p273
(lp274
S'257'
p275
aS'300'
p276
asS'199'
p277
(lp278
S'288'
p279
aS'300'
p280
asS'198'
p281
(lp282
S'220'
p283
aS'277'
p284
asS'1081'
p285
(lp286
S'307'
p287
aS'300'
p288
asS'596'
p289
(lp290
S'300'
p291
aS'300'
p292
asS'195'
p293
(lp294
S'170'
p295
aS'277'
p296
asS'194'
p297
(lp298
S'155'
p299
aS'254'
p300
asS'197'
p301
(lp302
S'242'
p303
aS'300'
p304
asS'196'
p305
(lp306
S'270'
p307
aS'300'
p308
asS'191'
p309
(lp310
S'209'
p311
aS'300'
p312
asS'190'
p313
(lp314
S'256'
p315
aS'300'
p316
asS'193'
p317
(lp318
S'213'
p319
aS'300'
p320
asS'192'
p321
(lp322
S'247'
p323
aS'300'
p324
asS'270'
p325
(lp326
S'232'
p327
aS'300'
p328
asS'271'
p329
(lp330
S'238'
p331
aS'300'
p332
asS'272'
p333
(lp334
S'283'
p335
aS'300'
p336
asS'273'
p337
(lp338
S'314'
p339
aS'300'
p340
asS'274'
p341
(lp342
S'191'
p343
aS'260'
p344
asS'276'
p345
(lp346
S'309'
p347
aS'300'
p348
asS'277'
p349
(lp350
S'312'
p351
aS'300'
p352
asS'278'
p353
(lp354
S'176'
p355
aS'275'
p356
asS'279'
p357
(lp358
S'349'
p359
aS'299'
p360
asS'738'
p361
(lp362
S'258'
p363
aS'300'
p364
asS'1359'
p365
(lp366
S'111'
p367
aS'233'
p368
asS'1067'
p369
(lp370
S'219'
p371
aS'300'
p372
asS'525'
p373
(lp374
S'231'
p375
aS'300'
p376
asS'526'
p377
(lp378
S'438'
p379
aS'300'
p380
asS'527'
p381
(lp382
S'239'
p383
aS'300'
p384
asS'520'
p385
(lp386
S'160'
p387
aS'219'
p388
asS'521'
p389
(lp390
S'361'
p391
aS'252'
p392
asS'522'
p393
(lp394
S'281'
p395
aS'300'
p396
asS'523'
p397
(lp398
S'369'
p399
aS'300'
p400
asS'1014'
p401
(lp402
S'360'
p403
aS'300'
p404
asS'1015'
p405
(lp406
S'171'
p407
aS'274'
p408
asS'599'
p409
(lp410
S'439'
p411
aS'300'
p412
asS'1017'
p413
(lp414
S'154'
p415
aS'250'
p416
asS'528'
p417
(lp418
S'308'
p419
aS'300'
p420
asS'529'
p421
(lp422
S'169'
p423
aS'141'
p424
asS'994'
p425
(lp426
S'253'
p427
aS'300'
p428
asS'1404'
p429
(lp430
S'274'
p431
aS'246'
p432
asS'1234'
p433
(lp434
S'295'
p435
aS'300'
p436
asS'1025'
p437
(lp438
S'208'
p439
aS'296'
p440
asS'449'
p441
(lp442
S'122'
p443
aS'202'
p444
asS'448'
p445
(lp446
S'330'
p447
aS'300'
p448
asS'1230'
p449
(lp450
S'331'
p451
aS'300'
p452
asS'1231'
p453
(lp454
S'274'
p455
aS'300'
p456
asS'1232'
p457
(lp458
S'249'
p459
aS'300'
p460
asS'1233'
p461
(lp462
S'368'
p463
aS'300'
p464
asS'443'
p465
(lp466
S'260'
p467
aS'300'
p468
asS'442'
p469
(lp470
S'127'
p471
aS'186'
p472
asS'441'
p473
(lp474
S'206'
p475
aS'282'
p476
asS'440'
p477
(lp478
S'291'
p479
aS'300'
p480
asS'447'
p481
(lp482
S'229'
p483
aS'300'
p484
asS'446'
p485
(lp486
S'357'
p487
aS'300'
p488
asS'445'
p489
(lp490
S'141'
p491
aS'290'
p492
asS'444'
p493
(lp494
S'195'
p495
aS'274'
p496
asS'108'
p497
(lp498
S'294'
p499
aS'300'
p500
asS'109'
p501
(lp502
S'251'
p503
aS'285'
p504
asS'1135'
p505
(lp506
S'292'
p507
aS'300'
p508
asS'102'
p509
(lp510
S'288'
p511
aS'300'
p512
asS'103'
p513
(lp514
S'237'
p515
aS'300'
p516
asS'101'
p517
(lp518
S'244'
p519
aS'300'
p520
asS'106'
p521
(lp522
S'333'
p523
aS'300'
p524
asS'107'
p525
(lp526
S'74'
p527
aS'160'
p528
asS'104'
p529
(lp530
S'274'
p531
aS'298'
p532
asS'105'
p533
(lp534
S'307'
p535
aS'300'
p536
asS'902'
p537
(lp538
S'131'
p539
aS'243'
p540
asS'903'
p541
(lp542
S'256'
p543
aS'300'
p544
asS'39'
p545
(lp546
S'128'
p547
aS'250'
p548
asS'38'
p549
(lp550
S'289'
p551
aS'300'
p552
asS'906'
p553
(lp554
S'251'
p555
aS'300'
p556
asS'907'
p557
(lp558
S'115'
p559
aS'230'
p560
asS'904'
p561
(lp562
S'235'
p563
aS'300'
p564
asS'905'
p565
(lp566
S'337'
p567
aS'300'
p568
asS'33'
p569
(lp570
S'292'
p571
aS'300'
p572
asS'32'
p573
(lp574
S'323'
p575
aS'300'
p576
asS'31'
p577
(lp578
S'279'
p579
aS'300'
p580
asS'30'
p581
(lp582
S'264'
p583
aS'300'
p584
asS'37'
p585
(lp586
S'269'
p587
aS'300'
p588
asS'36'
p589
(lp590
S'218'
p591
aS'300'
p592
asS'35'
p593
(lp594
S'268'
p595
aS'300'
p596
asS'34'
p597
(lp598
S'227'
p599
aS'300'
p600
asS'641'
p601
(lp602
S'160'
p603
aS'231'
p604
asS'640'
p605
(lp606
S'227'
p607
aS'300'
p608
asS'643'
p609
(lp610
S'434'
p611
aS'300'
p612
asS'642'
p613
(lp614
S'303'
p615
aS'300'
p616
asS'1245'
p617
(lp618
S'151'
p619
aS'299'
p620
asS'644'
p621
(lp622
S'300'
p623
aS'300'
p624
asS'438'
p625
(lp626
S'251'
p627
aS'299'
p628
asS'439'
p629
(lp630
S'245'
p631
aS'298'
p632
asS'436'
p633
(lp634
S'249'
p635
aS'300'
p636
asS'437'
p637
(lp638
S'256'
p639
aS'300'
p640
asS'434'
p641
(lp642
S'298'
p643
aS'300'
p644
asS'435'
p645
(lp646
S'6'
p647
aS'18'
p648
asS'432'
p649
(lp650
S'188'
p651
aS'290'
p652
asS'433'
p653
(lp654
S'260'
p655
aS'299'
p656
asS'430'
p657
(lp658
S'303'
p659
aS'300'
p660
asS'431'
p661
(lp662
S'137'
p663
aS'281'
p664
asS'1156'
p665
(lp666
S'91'
p667
aS'183'
p668
asS'339'
p669
(lp670
S'327'
p671
aS'300'
p672
asS'338'
p673
(lp674
S'268'
p675
aS'300'
p676
asS'335'
p677
(lp678
S'309'
p679
aS'300'
p680
asS'334'
p681
(lp682
S'117'
p683
aS'236'
p684
asS'337'
p685
(lp686
S'272'
p687
aS'300'
p688
asS'336'
p689
(lp690
S'242'
p691
aS'300'
p692
asS'331'
p693
(lp694
S'238'
p695
aS'300'
p696
asS'330'
p697
(lp698
S'444'
p699
aS'300'
p700
asS'333'
p701
(lp702
S'250'
p703
aS'291'
p704
asS'332'
p705
(lp706
S'155'
p707
aS'279'
p708
asS'1372'
p709
(lp710
S'229'
p711
aS'300'
p712
asS'1120'
p713
(lp714
S'202'
p715
aS'296'
p716
asS'1385'
p717
(lp718
S'183'
p719
aS'193'
p720
asS'744'
p721
(lp722
S'209'
p723
aS'297'
p724
asS'1000'
p725
(lp726
S'211'
p727
aS'300'
p728
asS'745'
p729
(lp730
S'237'
p731
aS'300'
p732
asS'854'
p733
(lp734
S'328'
p735
aS'300'
p736
asS'855'
p737
(lp738
S'69'
p739
aS'143'
p740
asS'856'
p741
(lp742
S'128'
p743
aS'180'
p744
asS'857'
p745
(lp746
S'214'
p747
aS'300'
p748
asS'850'
p749
(lp750
S'303'
p751
aS'300'
p752
asS'851'
p753
(lp754
S'267'
p755
aS'300'
p756
asS'852'
p757
(lp758
S'299'
p759
aS'300'
p760
asS'345'
p761
(lp762
S'196'
p763
aS'239'
p764
asS'858'
p765
(lp766
S'293'
p767
aS'300'
p768
asS'859'
p769
(lp770
S'285'
p771
aS'300'
p772
asS'1375'
p773
(lp774
S'219'
p775
aS'300'
p776
asg647
(lp777
S'374'
p778
aS'300'
p779
asS'1162'
p780
(lp781
S'212'
p782
aS'294'
p783
asS'900'
p784
(lp785
S'245'
p786
aS'290'
p787
asS'1282'
p788
(lp789
S'353'
p790
aS'240'
p791
asS'1374'
p792
(lp793
S'168'
p794
aS'132'
p795
asS'1187'
p796
(lp797
S'286'
p798
aS'300'
p799
asS'99'
p800
(lp801
S'299'
p802
aS'300'
p803
asS'98'
p804
(lp805
S'77'
p806
aS'166'
p807
asS'1421'
p808
(lp809
S'278'
p810
aS'300'
p811
asS'1085'
p812
(lp813
S'170'
p814
aS'238'
p815
asS'91'
p816
(lp817
S'259'
p818
aS'295'
p819
asS'90'
p820
(lp821
S'218'
p822
aS'300'
p823
asS'93'
p824
(lp825
S'285'
p826
aS'300'
p827
asS'92'
p828
(lp829
S'219'
p830
aS'289'
p831
asS'95'
p832
(lp833
S'289'
p834
aS'300'
p835
asS'94'
p836
(lp837
S'256'
p838
aS'300'
p839
asS'97'
p840
(lp841
S'216'
p842
aS'192'
p843
asS'96'
p844
(lp845
S'171'
p846
aS'168'
p847
asS'1353'
p848
(lp849
S'217'
p850
aS'293'
p851
asS'1426'
p852
(lp853
S'153'
p854
aS'236'
p855
asS'1216'
p856
(lp857
S'282'
p858
aS'300'
p859
asS'814'
p860
(lp861
S'246'
p862
aS'300'
p863
asS'815'
p864
(lp865
S'235'
p866
aS'300'
p867
asS'1066'
p868
(lp869
S'294'
p870
aS'300'
p871
asS'1435'
p872
(lp873
S'175'
p874
aS'286'
p875
asS'1416'
p876
(lp877
S'240'
p878
aS'292'
p879
asS'1352'
p880
(lp881
S'258'
p882
aS'297'
p883
asS'740'
p884
(lp885
S'363'
p886
aS'300'
p887
asS'1317'
p888
(lp889
S'143'
p890
aS'224'
p891
asS'742'
p892
(lp893
S'413'
p894
aS'300'
p895
asS'743'
p896
(lp897
S'256'
p898
aS'300'
p899
asS'559'
p900
(lp901
S'149'
p902
aS'247'
p903
asS'558'
p904
(lp905
S'144'
p906
aS'256'
p907
asS'746'
p908
(lp909
S'263'
p910
aS'300'
p911
asS'747'
p912
(lp913
S'209'
p914
aS'298'
p915
asS'555'
p916
(lp917
S'239'
p918
aS'294'
p919
asS'554'
p920
(lp921
S'8'
p922
ag647
asS'557'
p923
(lp924
S'120'
p925
aS'242'
p926
asS'1339'
p927
(lp928
S'107'
p929
aS'274'
p930
asS'551'
p931
(lp932
S'297'
p933
aS'300'
p934
asS'550'
p935
(lp936
S'287'
p937
aS'300'
p938
asS'553'
p939
(lp940
S'202'
p941
aS'296'
p942
asS'552'
p943
(lp944
S'265'
p945
aS'300'
p946
asS'1314'
p947
(lp948
S'191'
p949
aS'247'
p950
asS'238'
p951
(lp952
S'183'
p953
aS'174'
p954
asS'239'
p955
(lp956
S'227'
p957
aS'300'
p958
asS'234'
p959
(lp960
S'303'
p961
aS'300'
p962
asS'235'
p963
(lp964
S'186'
p965
aS'286'
p966
asS'236'
p967
(lp968
S'327'
p969
aS'300'
p970
asS'237'
p971
(lp972
S'183'
p973
aS'270'
p974
asS'230'
p975
(lp976
S'224'
p977
aS'300'
p978
asS'231'
p979
(lp980
S'341'
p981
aS'300'
p982
asS'232'
p983
(lp984
S'177'
p985
aS'258'
p986
asS'233'
p987
(lp988
S'181'
p989
aS'291'
p990
asS'1050'
p991
(lp992
S'282'
p993
aS'300'
p994
asS'1198'
p995
(lp996
S'332'
p997
aS'300'
p998
asS'1052'
p999
(lp1000
S'247'
p1001
aS'300'
p1002
asS'1053'
p1003
(lp1004
S'356'
p1005
aS'301'
p1006
asS'1054'
p1007
(lp1008
S'304'
p1009
aS'300'
p1010
asS'1311'
p1011
(lp1012
S'211'
p1013
aS'277'
p1014
asS'1057'
p1015
(lp1016
S'328'
p1017
aS'300'
p1018
asS'1058'
p1019
(lp1020
S'288'
p1021
aS'300'
p1022
asS'1059'
p1023
(lp1024
S'235'
p1025
aS'300'
p1026
asS'1193'
p1027
(lp1028
S'289'
p1029
aS'300'
p1030
asS'1192'
p1031
(lp1032
S'328'
p1033
aS'298'
p1034
asS'1195'
p1035
(lp1036
S'304'
p1037
aS'300'
p1038
asS'1194'
p1039
(lp1040
S'309'
p1041
aS'300'
p1042
asS'1197'
p1043
(lp1044
S'214'
p1045
aS'287'
p1046
asS'1196'
p1047
(lp1048
S'213'
p1049
aS'247'
p1050
asg55
(lp1051
S'271'
p1052
aS'300'
p1053
asS'614'
p1054
(lp1055
S'184'
p1056
aS'258'
p1057
asS'1350'
p1058
(lp1059
S'207'
p1060
aS'278'
p1061
asS'146'
p1062
(lp1063
S'303'
p1064
aS'300'
p1065
asS'1176'
p1066
(lp1067
S'175'
p1068
aS'232'
p1069
asS'144'
p1070
(lp1071
S'275'
p1072
aS'300'
p1073
asS'145'
p1074
(lp1075
S'294'
p1076
aS'298'
p1077
asS'142'
p1078
(lp1079
S'309'
p1080
aS'300'
p1081
asS'143'
p1082
(lp1083
S'252'
p1084
aS'300'
p1085
asS'140'
p1086
(lp1087
S'298'
p1088
aS'300'
p1089
asS'141'
p1090
(lp1091
S'279'
p1092
aS'300'
p1093
asS'612'
p1094
(lp1095
S'343'
p1096
aS'300'
p1097
asS'613'
p1098
(lp1099
S'399'
p1100
aS'300'
p1101
asS'610'
p1102
(lp1103
S'272'
p1104
aS'300'
p1105
asS'611'
p1106
(lp1107
S'354'
p1108
aS'300'
p1109
asS'616'
p1110
(lp1111
S'219'
p1112
aS'272'
p1113
asS'617'
p1114
(lp1115
S'245'
p1116
aS'299'
p1117
asS'148'
p1118
(lp1119
S'299'
p1120
aS'300'
p1121
asS'149'
p1122
(lp1123
S'273'
p1124
aS'299'
p1125
asS'1007'
p1126
(lp1127
S'208'
p1128
aS'299'
p1129
asS'912'
p1130
(lp1131
S'279'
p1132
aS'300'
p1133
asS'1139'
p1134
(lp1135
S'205'
p1136
aS'300'
p1137
asS'951'
p1138
(lp1139
S'93'
p1140
aS'227'
p1141
asS'1318'
p1142
(lp1143
S'255'
p1144
aS'300'
p1145
asS'1005'
p1146
(lp1147
S'153'
p1148
aS'245'
p1149
asS'1285'
p1150
(lp1151
S'199'
p1152
aS'294'
p1153
asS'1284'
p1154
(lp1155
S'276'
p1156
aS'300'
p1157
asS'1287'
p1158
(lp1159
S'142'
p1160
aS'262'
p1161
asS'1004'
p1162
(lp1163
S'202'
p1164
aS'300'
p1165
asS'1281'
p1166
(lp1167
S'341'
p1168
aS'300'
p1169
asS'1280'
p1170
(lp1171
S'70'
p1172
aS'143'
p1173
asS'948'
p1174
(lp1175
S'227'
p1176
aS'290'
p1177
asS'949'
p1178
(lp1179
S'261'
p1180
aS'294'
p1181
asS'946'
p1182
(lp1183
S'309'
p1184
aS'300'
p1185
asS'947'
p1186
(lp1187
S'171'
p1188
aS'262'
p1189
asS'944'
p1190
(lp1191
S'254'
p1192
aS'300'
p1193
asS'945'
p1194
(lp1195
S'319'
p1196
aS'300'
p1197
asS'942'
p1198
(lp1199
S'335'
p1200
aS'300'
p1201
asS'943'
p1202
(lp1203
S'368'
p1204
aS'300'
p1205
asS'940'
p1206
(lp1207
S'245'
p1208
aS'278'
p1209
asS'1002'
p1210
(lp1211
S'189'
p1212
aS'300'
p1213
asS'1191'
p1214
(lp1215
S'236'
p1216
aS'287'
p1217
asS'768'
p1218
(lp1219
S'161'
p1220
aS'279'
p1221
asS'689'
p1222
(lp1223
S'289'
p1224
aS'300'
p1225
asS'688'
p1226
(lp1227
S'265'
p1228
aS'300'
p1229
asS'1356'
p1230
(lp1231
S'192'
p1232
aS'289'
p1233
asS'1190'
p1234
(lp1235
S'249'
p1236
aS'300'
p1237
asS'685'
p1238
(lp1239
S'226'
p1240
aS'295'
p1241
asS'684'
p1242
(lp1243
S'233'
p1244
aS'300'
p1245
asS'687'
p1246
(lp1247
S'266'
p1248
aS'300'
p1249
asS'686'
p1250
(lp1251
S'307'
p1252
aS'298'
p1253
asS'681'
p1254
(lp1255
S'209'
p1256
aS'255'
p1257
asS'680'
p1258
(lp1259
S'223'
p1260
aS'279'
p1261
asS'683'
p1262
(lp1263
S'283'
p1264
aS'300'
p1265
asS'1304'
p1266
(lp1267
S'286'
p1268
aS'300'
p1269
asS'623'
p1270
(lp1271
S'317'
p1272
aS'300'
p1273
asS'1306'
p1274
(lp1275
S'328'
p1276
aS'300'
p1277
asS'1307'
p1278
(lp1279
S'27'
p1280
aS'45'
p1281
asS'1300'
p1282
(lp1283
S'280'
p1284
aS'300'
p1285
asS'819'
p1286
(lp1287
S'269'
p1288
aS'300'
p1289
asS'1302'
p1290
(lp1291
S'338'
p1292
aS'300'
p1293
asS'622'
p1294
(lp1295
S'393'
p1296
aS'300'
p1297
asS'1240'
p1298
(lp1299
S'237'
p1300
aS'270'
p1301
asS'1308'
p1302
(lp1303
S'315'
p1304
aS'300'
p1305
asS'1225'
p1306
(lp1307
S'206'
p1308
aS'299'
p1309
asS'1364'
p1310
(lp1311
S'266'
p1312
aS'300'
p1313
asS'133'
p1314
(lp1315
S'305'
p1316
aS'300'
p1317
asS'132'
p1318
(lp1319
S'265'
p1320
aS'299'
p1321
asS'131'
p1322
(lp1323
S'69'
p1324
aS'96'
p1325
asS'130'
p1326
(lp1327
S'193'
p1328
aS'249'
p1329
asS'498'
p1330
(lp1331
S'303'
p1332
aS'300'
p1333
asS'136'
p1334
(lp1335
S'292'
p1336
aS'300'
p1337
asS'135'
p1338
(lp1339
S'275'
p1340
aS'300'
p1341
asS'134'
p1342
(lp1343
S'214'
p1344
aS'226'
p1345
asS'494'
p1346
(lp1347
S'232'
p1348
aS'300'
p1349
asS'495'
p1350
(lp1351
S'247'
p1352
aS'300'
p1353
asS'139'
p1354
(lp1355
S'217'
p1356
aS'300'
p1357
asS'138'
p1358
(lp1359
S'239'
p1360
aS'300'
p1361
asS'490'
p1362
(lp1363
S'304'
p1364
aS'300'
p1365
asS'491'
p1366
(lp1367
S'175'
p1368
aS'215'
p1369
asS'493'
p1370
(lp1371
S'367'
p1372
aS'300'
p1373
asS'24'
p1374
(lp1375
S'152'
p1376
aS'210'
p1377
asS'25'
p1378
(lp1379
S'186'
p1380
aS'162'
p1381
asS'26'
p1382
(lp1383
S'255'
p1384
aS'300'
p1385
asS'27'
p1386
(lp1387
S'238'
p1388
aS'300'
p1389
asS'20'
p1390
(lp1391
S'263'
p1392
aS'300'
p1393
asS'21'
p1394
(lp1395
S'315'
p1396
aS'300'
p1397
asS'22'
p1398
(lp1399
S'221'
p1400
aS'300'
p1401
asS'23'
p1402
(lp1403
S'330'
p1404
aS'300'
p1405
asS'1243'
p1406
(lp1407
S'301'
p1408
aS'300'
p1409
asS'927'
p1410
(lp1411
S'225'
p1412
aS'293'
p1413
asS'28'
p1414
(lp1415
S'289'
p1416
aS'300'
p1417
asS'29'
p1418
(lp1419
S'286'
p1420
aS'300'
p1421
asS'407'
p1422
(lp1423
S'385'
p1424
aS'300'
p1425
asS'406'
p1426
(lp1427
S'320'
p1428
aS'300'
p1429
asS'405'
p1430
(lp1431
S'249'
p1432
aS'297'
p1433
asS'404'
p1434
(lp1435
S'263'
p1436
aS'300'
p1437
asS'403'
p1438
(lp1439
S'193'
p1440
aS'300'
p1441
asS'402'
p1442
(lp1443
S'314'
p1444
aS'300'
p1445
asS'401'
p1446
(lp1447
S'256'
p1448
aS'300'
p1449
asS'400'
p1450
(lp1451
S'339'
p1452
aS'300'
p1453
asS'933'
p1454
(lp1455
S'230'
p1456
aS'285'
p1457
asS'932'
p1458
(lp1459
S'317'
p1460
aS'300'
p1461
asS'931'
p1462
(lp1463
S'274'
p1464
aS'300'
p1465
asS'930'
p1466
(lp1467
S'115'
p1468
aS'192'
p1469
asS'937'
p1470
(lp1471
S'324'
p1472
aS'300'
p1473
asS'629'
p1474
(lp1475
S'307'
p1476
aS'300'
p1477
asS'935'
p1478
(lp1479
S'381'
p1480
aS'300'
p1481
asS'408'
p1482
(lp1483
S'222'
p1484
aS'300'
p1485
asS'1294'
p1486
(lp1487
S'350'
p1488
aS'300'
p1489
asS'1069'
p1490
(lp1491
S'225'
p1492
aS'299'
p1493
asS'628'
p1494
(lp1495
S'281'
p1496
aS'228'
p1497
asS'1316'
p1498
(lp1499
S'304'
p1500
aS'300'
p1501
asS'1028'
p1502
(lp1503
S'272'
p1504
aS'300'
p1505
asS'1344'
p1506
(lp1507
S'358'
p1508
aS'300'
p1509
asS'758'
p1510
(lp1511
S'232'
p1512
aS'297'
p1513
asS'1212'
p1514
(lp1515
S'170'
p1516
aS'288'
p1517
asS'1345'
p1518
(lp1519
S'259'
p1520
aS'300'
p1521
asS'1229'
p1522
(lp1523
S'173'
p1524
aS'290'
p1525
asS'1178'
p1526
(lp1527
S'246'
p1528
aS'300'
p1529
asS'1347'
p1530
(lp1531
S'270'
p1532
aS'282'
p1533
asS'1018'
p1534
(lp1535
S'146'
p1536
aS'276'
p1537
asS'1315'
p1538
(lp1539
S'118'
p1540
aS'248'
p1541
asS'829'
p1542
(lp1543
S'257'
p1544
aS'300'
p1545
asS'1060'
p1546
(lp1547
S'306'
p1548
aS'300'
p1549
asS'371'
p1550
(lp1551
S'300'
p1552
aS'300'
p1553
asS'370'
p1554
(lp1555
S'205'
p1556
aS'292'
p1557
asS'373'
p1558
(lp1559
S'244'
p1560
aS'299'
p1561
asS'372'
p1562
(lp1563
S'152'
p1564
aS'296'
p1565
asS'375'
p1566
(lp1567
S'221'
p1568
aS'300'
p1569
asS'374'
p1570
(lp1571
S'229'
p1572
aS'192'
p1573
asS'377'
p1574
(lp1575
S'199'
p1576
aS'281'
p1577
asS'376'
p1578
(lp1579
S'166'
p1580
aS'132'
p1581
asS'1177'
p1582
(lp1583
S'208'
p1584
aS'278'
p1585
asS'1334'
p1586
(lp1587
S'303'
p1588
aS'300'
p1589
asS'708'
p1590
(lp1591
S'378'
p1592
aS'300'
p1593
asS'709'
p1594
(lp1595
S'247'
p1596
aS'300'
p1597
asS'1279'
p1598
(lp1599
S'269'
p1600
aS'296'
p1601
asS'704'
p1602
(lp1603
S'157'
p1604
aS'184'
p1605
asS'705'
p1606
(lp1607
S'222'
p1608
aS'299'
p1609
asS'706'
p1610
(lp1611
S'130'
p1612
aS'154'
p1613
asS'707'
p1614
(lp1615
S'160'
p1616
aS'278'
p1617
asS'618'
p1618
(lp1619
S'159'
p1620
aS'272'
p1621
asS'702'
p1622
(lp1623
S'199'
p1624
aS'290'
p1625
asS'703'
p1626
(lp1627
S'266'
p1628
aS'300'
p1629
asS'393'
p1630
(lp1631
S'242'
p1632
aS'210'
p1633
asS'392'
p1634
(lp1635
S'215'
p1636
aS'296'
p1637
asS'88'
p1638
(lp1639
S'336'
p1640
aS'300'
p1641
asS'89'
p1642
(lp1643
S'247'
p1644
aS'294'
p1645
asS'397'
p1646
(lp1647
S'361'
p1648
aS'300'
p1649
asS'396'
p1650
(lp1651
S'265'
p1652
aS'300'
p1653
asS'395'
p1654
(lp1655
S'183'
p1656
aS'300'
p1657
asS'394'
p1658
(lp1659
S'129'
p1660
aS'214'
p1661
asS'82'
p1662
(lp1663
S'91'
p1664
aS'180'
p1665
asS'83'
p1666
(lp1667
S'249'
p1668
aS'300'
p1669
asS'80'
p1670
(lp1671
S'230'
p1672
aS'300'
p1673
asS'81'
p1674
(lp1675
S'84'
p1676
aS'104'
p1677
asS'86'
p1678
(lp1679
S'157'
p1680
aS'272'
p1681
asS'87'
p1682
(lp1683
S'212'
p1684
aS'285'
p1685
asS'84'
p1686
(lp1687
S'283'
p1688
aS'300'
p1689
asS'85'
p1690
(lp1691
S'154'
p1692
aS'240'
p1693
asS'797'
p1694
(lp1695
S'296'
p1696
aS'300'
p1697
asS'796'
p1698
(lp1699
S'262'
p1700
aS'300'
p1701
asS'795'
p1702
(lp1703
S'214'
p1704
aS'288'
p1705
asS'794'
p1706
(lp1707
S'322'
p1708
aS'300'
p1709
asS'793'
p1710
(lp1711
S'168'
p1712
aS'295'
p1713
asS'792'
p1714
(lp1715
S'315'
p1716
aS'300'
p1717
asS'791'
p1718
(lp1719
S'267'
p1720
aS'300'
p1721
asS'790'
p1722
(lp1723
S'223'
p1724
aS'300'
p1725
asS'1170'
p1726
(lp1727
S'279'
p1728
aS'300'
p1729
asS'799'
p1730
(lp1731
S'172'
p1732
aS'243'
p1733
asS'798'
p1734
(lp1735
S'275'
p1736
aS'300'
p1737
asS'1270'
p1738
(lp1739
S'167'
p1740
aS'120'
p1741
asS'1329'
p1742
(lp1743
S'75'
p1744
aS'54'
p1745
asS'1262'
p1746
(lp1747
S'294'
p1748
aS'300'
p1749
asS'7'
p1750
(lp1751
S'280'
p1752
aS'300'
p1753
asS'601'
p1754
(lp1755
S'302'
p1756
aS'300'
p1757
asS'1388'
p1758
(lp1759
S'221'
p1760
aS'300'
p1761
asS'1423'
p1762
(lp1763
S'119'
p1764
aS'174'
p1765
asS'1272'
p1766
(lp1767
S'370'
p1768
aS'300'
p1769
asS'1312'
p1770
(lp1771
S'307'
p1772
aS'300'
p1773
asS'1246'
p1774
(lp1775
S'230'
p1776
aS'300'
p1777
asS'586'
p1778
(lp1779
S'215'
p1780
aS'297'
p1781
asS'587'
p1782
(lp1783
S'104'
p1784
aS'132'
p1785
asS'584'
p1786
(lp1787
S'227'
p1788
aS'300'
p1789
asS'585'
p1790
(lp1791
S'234'
p1792
aS'300'
p1793
asS'582'
p1794
(lp1795
S'208'
p1796
aS'291'
p1797
asS'583'
p1798
(lp1799
S'294'
p1800
aS'300'
p1801
asS'580'
p1802
(lp1803
S'230'
p1804
aS'291'
p1805
asS'581'
p1806
(lp1807
S'123'
p1808
aS'200'
p1809
asS'1133'
p1810
(lp1811
S'200'
p1812
aS'300'
p1813
asS'1132'
p1814
(lp1815
S'200'
p1816
aS'270'
p1817
asS'1131'
p1818
(lp1819
S'290'
p1820
aS'300'
p1821
asS'1130'
p1822
(lp1823
S'263'
p1824
aS'300'
p1825
asS'1137'
p1826
(lp1827
S'296'
p1828
aS'300'
p1829
asS'1136'
p1830
(lp1831
S'227'
p1832
aS'295'
p1833
asS'588'
p1834
(lp1835
S'290'
p1836
aS'300'
p1837
asS'589'
p1838
(lp1839
S'259'
p1840
aS'300'
p1841
asS'245'
p1842
(lp1843
S'166'
p1844
aS'235'
p1845
asS'244'
p1846
(lp1847
S'281'
p1848
aS'258'
p1849
asS'247'
p1850
(lp1851
S'220'
p1852
aS'298'
p1853
asS'246'
p1854
(lp1855
S'289'
p1856
aS'300'
p1857
asS'240'
p1858
(lp1859
S'177'
p1860
aS'277'
p1861
asS'243'
p1862
(lp1863
S'203'
p1864
aS'300'
p1865
asS'242'
p1866
(lp1867
S'168'
p1868
aS'233'
p1869
asS'1258'
p1870
(lp1871
S'304'
p1872
aS'300'
p1873
asS'615'
p1874
(lp1875
S'317'
p1876
aS'300'
p1877
asS'249'
p1878
(lp1879
S'206'
p1880
aS'297'
p1881
asS'248'
p1882
(lp1883
S'301'
p1884
aS'300'
p1885
asS'1348'
p1886
(lp1887
S'280'
p1888
aS'300'
p1889
asS'1298'
p1890
(lp1891
S'280'
p1892
aS'300'
p1893
asS'1436'
p1894
(lp1895
S'279'
p1896
aS'300'
p1897
asS'1437'
p1898
(lp1899
S'278'
p1900
aS'300'
p1901
asS'1213'
p1902
(lp1903
S'163'
p1904
aS'239'
p1905
asS'1387'
p1906
(lp1907
S'225'
p1908
aS'300'
p1909
asS'1432'
p1910
(lp1911
S'324'
p1912
aS'300'
p1913
asS'1433'
p1914
(lp1915
S'274'
p1916
aS'300'
p1917
asS'1430'
p1918
(lp1919
S'248'
p1920
aS'300'
p1921
asS'1431'
p1922
(lp1923
S'172'
p1924
aS'174'
p1925
asS'924'
p1926
(lp1927
S'229'
p1928
aS'300'
p1929
asS'970'
p1930
(lp1931
S'159'
p1932
aS'266'
p1933
asS'1438'
p1934
(lp1935
S'218'
p1936
aS'286'
p1937
asS'925'
p1938
(lp1939
S'167'
p1940
aS'280'
p1941
asS'519'
p1942
(lp1943
S'221'
p1944
aS'286'
p1945
asS'518'
p1946
(lp1947
S'174'
p1948
aS'293'
p1949
asS'926'
p1950
(lp1951
S'209'
p1952
aS'294'
p1953
asS'1009'
p1954
(lp1955
S'283'
p1956
aS'284'
p1957
asS'1008'
p1958
(lp1959
S'191'
p1960
aS'297'
p1961
asS'511'
p1962
(lp1963
S'265'
p1964
aS'296'
p1965
asS'510'
p1966
(lp1967
S'262'
p1968
aS'300'
p1969
asS'513'
p1970
(lp1971
S'242'
p1972
aS'300'
p1973
asS'512'
p1974
(lp1975
S'247'
p1976
aS'300'
p1977
asS'515'
p1978
(lp1979
S'205'
p1980
aS'300'
p1981
asS'514'
p1982
(lp1983
S'270'
p1984
aS'300'
p1985
asS'517'
p1986
(lp1987
S'249'
p1988
aS'300'
p1989
asS'516'
p1990
(lp1991
S'343'
p1992
aS'300'
p1993
asS'458'
p1994
(lp1995
S'189'
p1996
aS'276'
p1997
asS'459'
p1998
(lp1999
S'271'
p2000
aS'300'
p2001
asS'621'
p2002
(lp2003
S'363'
p2004
aS'300'
p2005
asS'620'
p2006
(lp2007
S'206'
p2008
aS'300'
p2009
asS'627'
p2010
(lp2011
S'159'
p2012
aS'259'
p2013
asS'626'
p2014
(lp2015
S'265'
p2016
aS'300'
p2017
asS'625'
p2018
(lp2019
S'129'
p2020
aS'120'
p2021
asS'624'
p2022
(lp2023
S'285'
p2024
aS'300'
p2025
asS'450'
p2026
(lp2027
S'250'
p2028
aS'300'
p2029
asS'451'
p2030
(lp2031
S'225'
p2032
aS'290'
p2033
asS'452'
p2034
(lp2035
S'203'
p2036
aS'300'
p2037
asS'453'
p2038
(lp2039
S'193'
p2040
aS'300'
p2041
asS'454'
p2042
(lp2043
S'341'
p2044
aS'300'
p2045
asS'455'
p2046
(lp2047
S'311'
p2048
aS'300'
p2049
asS'456'
p2050
(lp2051
S'358'
p2052
aS'300'
p2053
asS'1228'
p2054
(lp2055
S'220'
p2056
aS'300'
p2057
asS'979'
p2058
(lp2059
S'242'
p2060
aS'290'
p2061
asS'179'
p2062
(lp2063
S'111'
p2064
aS'218'
p2065
asS'1082'
p2066
(lp2067
S'247'
p2068
aS'299'
p2069
asS'177'
p2070
(lp2071
S'240'
p2072
aS'300'
p2073
asS'176'
p2074
(lp2075
S'167'
p2076
aS'220'
p2077
asS'175'
p2078
(lp2079
S'131'
p2080
aS'233'
p2081
asS'174'
p2082
(lp2083
S'346'
p2084
aS'300'
p2085
asS'171'
p2086
(lp2087
S'260'
p2088
aS'300'
p2089
asS'170'
p2090
(lp2091
S'418'
p2092
aS'300'
p2093
asS'977'
p2094
(lp2095
S'206'
p2096
aS'271'
p2097
asS'656'
p2098
(lp2099
S'212'
p2100
aS'276'
p2101
asS'975'
p2102
(lp2103
S'303'
p2104
aS'300'
p2105
asS'972'
p2106
(lp2107
S'277'
p2108
aS'300'
p2109
asS'971'
p2110
(lp2111
S'246'
p2112
aS'300'
p2113
asS'657'
p2114
(lp2115
S'294'
p2116
aS'300'
p2117
asS'1080'
p2118
(lp2119
S'277'
p2120
aS'300'
p2121
asS'1266'
p2122
(lp2123
S'330'
p2124
aS'300'
p2125
asS'654'
p2126
(lp2127
S'207'
p2128
aS'287'
p2129
asS'253'
p2130
(lp2131
S'320'
p2132
aS'300'
p2133
asS'978'
p2134
(lp2135
S'241'
p2136
aS'300'
p2137
asS'182'
p2138
(lp2139
S'232'
p2140
aS'299'
p2141
asS'183'
p2142
(lp2143
S'239'
p2144
aS'266'
p2145
asS'180'
p2146
(lp2147
S'124'
p2148
aS'255'
p2149
asS'181'
p2150
(lp2151
S'279'
p2152
aS'300'
p2153
asS'186'
p2154
(lp2155
S'285'
p2156
aS'300'
p2157
asS'187'
p2158
(lp2159
S'300'
p2160
aS'300'
p2161
asS'184'
p2162
(lp2163
S'316'
p2164
aS'300'
p2165
asS'598'
p2166
(lp2167
S'274'
p2168
aS'300'
p2169
asS'652'
p2170
(lp2171
S'276'
p2172
aS'300'
p2173
asS'188'
p2174
(lp2175
S'237'
p2176
aS'299'
p2177
asS'1122'
p2178
(lp2179
S'251'
p2180
aS'300'
p2181
asS'658'
p2182
(lp2183
S'309'
p2184
aS'300'
p2185
asS'653'
p2186
(lp2187
S'31'
p2188
aS'26'
p2189
asS'1123'
p2190
(lp2191
S'341'
p2192
aS'300'
p2193
asS'650'
p2194
(lp2195
S'270'
p2196
aS'301'
p2197
asS'1124'
p2198
(lp2199
S'124'
p2200
aS'225'
p2201
asS'651'
p2202
(lp2203
S'229'
p2204
aS'289'
p2205
asS'1331'
p2206
(lp2207
S'364'
p2208
aS'300'
p2209
asS'1125'
p2210
(lp2211
S'269'
p2212
aS'300'
p2213
asS'1148'
p2214
(lp2215
S'294'
p2216
aS'300'
p2217
asS'1089'
p2218
(lp2219
S'204'
p2220
aS'300'
p2221
asS'1088'
p2222
(lp2223
S'269'
p2224
aS'300'
p2225
asS'1227'
p2226
(lp2227
S'329'
p2228
aS'300'
p2229
asS'11'
p2230
(lp2231
S'376'
p2232
aS'300'
p2233
asS'10'
p2234
(lp2235
S'321'
p2236
aS'300'
p2237
asS'13'
p2238
(lp2239
S'299'
p2240
aS'300'
p2241
asS'12'
p2242
(lp2243
S'249'
p2244
aS'300'
p2245
asS'15'
p2246
(lp2247
S'288'
p2248
aS'300'
p2249
asS'14'
p2250
(lp2251
S'175'
p2252
aS'210'
p2253
asS'19'
p2254
(lp2255
S'206'
p2256
aS'216'
p2257
asS'18'
p2258
(lp2259
S'259'
p2260
aS'300'
p2261
asS'863'
p2262
(lp2263
S'272'
p2264
aS'300'
p2265
asS'862'
p2266
(lp2267
S'277'
p2268
aS'300'
p2269
asS'865'
p2270
(lp2271
S'162'
p2272
aS'144'
p2273
asS'864'
p2274
(lp2275
S'294'
p2276
aS'300'
p2277
asS'867'
p2278
(lp2279
S'146'
p2280
aS'197'
p2281
asS'866'
p2282
(lp2283
S'249'
p2284
aS'300'
p2285
asS'884'
p2286
(lp2287
S'228'
p2288
aS'300'
p2289
asS'1248'
p2290
(lp2291
S'168'
p2292
aS'282'
p2293
asS'1210'
p2294
(lp2295
S'102'
p2296
aS'189'
p2297
asS'659'
p2298
(lp2299
S'217'
p2300
aS'300'
p2301
asS'1226'
p2302
(lp2303
S'203'
p2304
aS'276'
p2305
asS'1365'
p2306
(lp2307
S'283'
p2308
aS'300'
p2309
asS'883'
p2310
(lp2311
S'271'
p2312
aS'300'
p2313
asS'753'
p2314
(lp2315
S'248'
p2316
aS'299'
p2317
asS'881'
p2318
(lp2319
S'278'
p2320
aS'300'
p2321
asS'880'
p2322
(lp2323
S'211'
p2324
aS'289'
p2325
asS'887'
p2326
(lp2327
S'36'
p2328
aS'64'
p2329
asS'831'
p2330
(lp2331
S'253'
p2332
aS'300'
p2333
asS'752'
p2334
(lp2335
S'288'
p2336
aS'300'
p2337
asS'928'
p2338
(lp2339
S'112'
p2340
aS'212'
p2341
asS'889'
p2342
(lp2343
S'269'
p2344
aS'300'
p2345
asS'888'
p2346
(lp2347
S'158'
p2348
aS'211'
p2349
asS'1012'
p2350
(lp2351
S'194'
p2352
aS'300'
p2353
asS'1032'
p2354
(lp2355
S'248'
p2356
aS'300'
p2357
asS'1292'
p2358
(lp2359
S'301'
p2360
aS'300'
p2361
asS'1362'
p2362
(lp2363
S'295'
p2364
aS'300'
p2365
asS'756'
p2366
(lp2367
S'324'
p2368
aS'300'
p2369
asS'1179'
p2370
(lp2371
S'327'
p2372
aS'300'
p2373
asS'1392'
p2374
(lp2375
S'110'
p2376
aS'207'
p2377
asS'1376'
p2378
(lp2379
S'142'
p2380
aS'231'
p2381
asS'929'
p2382
(lp2383
S'228'
p2384
aS'297'
p2385
asS'809'
p2386
(lp2387
S'294'
p2388
aS'300'
p2389
asS'1442'
p2390
(lp2391
S'179'
p2392
aS'281'
p2393
asS'322'
p2394
(lp2395
S'268'
p2396
aS'300'
p2397
asS'323'
p2398
(lp2399
S'223'
p2400
aS'288'
p2401
asS'320'
p2402
(lp2403
S'246'
p2404
aS'300'
p2405
asS'321'
p2406
(lp2407
S'339'
p2408
aS'300'
p2409
asS'326'
p2410
(lp2411
S'225'
p2412
aS'300'
p2413
asS'324'
p2414
(lp2415
S'283'
p2416
aS'300'
p2417
asS'325'
p2418
(lp2419
S'220'
p2420
aS'300'
p2421
asS'1224'
p2422
(lp2423
S'302'
p2424
aS'300'
p2425
asS'328'
p2426
(lp2427
S'197'
p2428
aS'300'
p2429
asS'329'
p2430
(lp2431
S'131'
p2432
aS'242'
p2433
asS'759'
p2434
(lp2435
S'270'
p2436
aS'300'
p2437
asS'201'
p2438
(lp2439
S'266'
p2440
aS'300'
p2441
asS'200'
p2442
(lp2443
S'259'
p2444
aS'282'
p2445
asS'203'
p2446
(lp2447
S'138'
p2448
aS'201'
p2449
asS'202'
p2450
(lp2451
S'197'
p2452
aS'291'
p2453
asS'205'
p2454
(lp2455
S'112'
p2456
aS'261'
p2457
asS'204'
p2458
(lp2459
S'226'
p2460
aS'300'
p2461
asS'207'
p2462
(lp2463
S'256'
p2464
aS'300'
p2465
asS'206'
p2466
(lp2467
S'287'
p2468
aS'293'
p2469
asS'209'
p2470
(lp2471
S'242'
p2472
aS'300'
p2473
asS'208'
p2474
(lp2475
S'236'
p2476
aS'299'
p2477
asS'779'
p2478
(lp2479
S'152'
p2480
aS'293'
p2481
asS'778'
p2482
(lp2483
S'268'
p2484
aS'290'
p2485
asS'1340'
p2486
(lp2487
S'289'
p2488
aS'300'
p2489
asS'77'
p2490
(lp2491
S'217'
p2492
aS'288'
p2493
asS'76'
p2494
(lp2495
S'248'
p2496
aS'300'
p2497
asS'75'
p2498
(lp2499
S'183'
p2500
aS'300'
p2501
asS'74'
p2502
(lp2503
S'332'
p2504
aS'300'
p2505
asS'73'
p2506
(lp2507
S'183'
p2508
aS'276'
p2509
asS'72'
p2510
(lp2511
S'247'
p2512
aS'300'
p2513
asS'71'
p2514
(lp2515
S'181'
p2516
aS'300'
p2517
asS'70'
p2518
(lp2519
S'212'
p2520
aS'300'
p2521
asS'1417'
p2522
(lp2523
S'317'
p2524
aS'300'
p2525
asS'1349'
p2526
(lp2527
S'145'
p2528
aS'192'
p2529
asS'79'
p2530
(lp2531
S'221'
p2532
aS'299'
p2533
asS'78'
p2534
(lp2535
S'230'
p2536
aS'271'
p2537
asg56
(lp2538
S'248'
p2539
aS'300'
p2540
asS'1042'
p2541
(lp2542
S'250'
p2543
aS'300'
p2544
asS'1041'
p2545
(lp2546
S'188'
p2547
aS'198'
p2548
asS'1040'
p2549
(lp2550
S'324'
p2551
aS'300'
p2552
asS'1047'
p2553
(lp2554
S'59'
p2555
aS'91'
p2556
asS'1043'
p2557
(lp2558
S'119'
p2559
aS'206'
p2560
asS'1044'
p2561
(lp2562
S'220'
p2563
aS'279'
p2564
asS'1049'
p2565
(lp2566
S'117'
p2567
aS'249'
p2568
asS'1048'
p2569
(lp2570
S'369'
p2571
aS'300'
p2572
asS'1341'
p2573
(lp2574
S'272'
p2575
aS'300'
p2576
asS'1222'
p2577
(lp2578
S'262'
p2579
aS'300'
p2580
asS'805'
p2581
(lp2582
S'302'
p2583
aS'300'
p2584
asS'1310'
p2585
(lp2586
S'229'
p2587
aS'300'
p2588
asS'1380'
p2589
(lp2590
S'338'
p2591
aS'300'
p2592
asS'1142'
p2593
(lp2594
S'351'
p2595
aS'300'
p2596
asS'1143'
p2597
(lp2598
S'234'
p2599
aS'300'
p2600
asS'1140'
p2601
(lp2602
S'228'
p2603
aS'274'
p2604
asS'1141'
p2605
(lp2606
S'298'
p2607
aS'295'
p2608
asS'1146'
p2609
(lp2610
S'228'
p2611
aS'300'
p2612
asS'1147'
p2613
(lp2614
S'168'
p2615
aS'240'
p2616
asS'669'
p2617
(lp2618
S'263'
p2619
aS'300'
p2620
asS'668'
p2621
(lp2622
S'294'
p2623
aS'300'
p2624
asS'667'
p2625
(lp2626
S'299'
p2627
aS'300'
p2628
asS'666'
p2629
(lp2630
S'202'
p2631
aS'287'
p2632
asS'665'
p2633
(lp2634
S'123'
p2635
aS'171'
p2636
asS'664'
p2637
(lp2638
S'161'
p2639
aS'300'
p2640
asS'1267'
p2641
(lp2642
S'307'
p2643
aS'300'
p2644
asS'662'
p2645
(lp2646
S'225'
p2647
aS'287'
p2648
asS'661'
p2649
(lp2650
S'350'
p2651
aS'300'
p2652
asS'660'
p2653
(lp2654
S'201'
p2655
aS'300'
p2656
asS'1221'
p2657
(lp2658
S'301'
p2659
aS'300'
p2660
asS'769'
p2661
(lp2662
S'303'
p2663
aS'300'
p2664
asS'1278'
p2665
(lp2666
S'339'
p2667
aS'300'
p2668
asS'1301'
p2669
(lp2670
S'260'
p2671
aS'300'
p2672
asS'692'
p2673
(lp2674
S'328'
p2675
aS'300'
p2676
asS'693'
p2677
(lp2678
S'105'
p2679
aS'153'
p2680
asS'690'
p2681
(lp2682
S'327'
p2683
aS'300'
p2684
asS'691'
p2685
(lp2686
S'321'
p2687
aS'300'
p2688
asS'696'
p2689
(lp2690
S'262'
p2691
aS'270'
p2692
asS'697'
p2693
(lp2694
S'289'
p2695
aS'300'
p2696
asS'694'
p2697
(lp2698
S'269'
p2699
aS'298'
p2700
asS'695'
p2701
(lp2702
S'232'
p2703
aS'300'
p2704
asS'1293'
p2705
(lp2706
S'198'
p2707
aS'263'
p2708
asS'1297'
p2709
(lp2710
S'177'
p2711
aS'268'
p2712
asS'698'
p2713
(lp2714
S'167'
p2715
aS'261'
p2716
asS'1303'
p2717
(lp2718
S'308'
p2719
aS'300'
p2720
asS'1409'
p2721
(lp2722
S'269'
p2723
aS'293'
p2724
asS'542'
p2725
(lp2726
S'260'
p2727
aS'300'
p2728
asS'543'
p2729
(lp2730
S'287'
p2731
aS'300'
p2732
asS'540'
p2733
(lp2734
S'191'
p2735
aS'278'
p2736
asS'541'
p2737
(lp2738
S'292'
p2739
aS'300'
p2740
asS'546'
p2741
(lp2742
S'325'
p2743
aS'300'
p2744
asS'547'
p2745
(lp2746
S'250'
p2747
aS'296'
p2748
asS'544'
p2749
(lp2750
S'254'
p2751
aS'300'
p2752
asS'545'
p2753
(lp2754
S'301'
p2755
aS'300'
p2756
asg922
(lp2757
S'322'
p2758
aS'300'
p2759
asS'548'
p2760
(lp2761
S'255'
p2762
aS'300'
p2763
asS'68'
p2764
(lp2765
S'284'
p2766
aS'294'
p2767
asS'1019'
p2768
(lp2769
S'257'
p2770
aS'300'
p2771
asS'995'
p2772
(lp2773
S'234'
p2774
aS'300'
p2775
asS'869'
p2776
(lp2777
S'218'
p2778
aS'294'
p2779
asS'997'
p2780
(lp2781
S'203'
p2782
aS'294'
p2783
asS'996'
p2784
(lp2785
S'182'
p2786
aS'266'
p2787
asS'991'
p2788
(lp2789
S'411'
p2790
aS'300'
p2791
asS'990'
p2792
(lp2793
S'184'
p2794
aS'292'
p2795
asS'993'
p2796
(lp2797
S'257'
p2798
aS'300'
p2799
asS'992'
p2800
(lp2801
S'187'
p2802
aS'285'
p2803
asS'999'
p2804
(lp2805
S'226'
p2806
aS'296'
p2807
asS'998'
p2808
(lp2809
S'243'
p2810
aS'300'
p2811
asS'1319'
p2812
(lp2813
S'173'
p2814
aS'257'
p2815
asS'1309'
p2816
(lp2817
S'201'
p2818
aS'293'
p2819
asS'120'
p2820
(lp2821
S'165'
p2822
aS'238'
p2823
asS'121'
p2824
(lp2825
S'260'
p2826
aS'300'
p2827
asS'122'
p2828
(lp2829
S'207'
p2830
aS'279'
p2831
asS'124'
p2832
(lp2833
S'264'
p2834
aS'300'
p2835
asS'125'
p2836
(lp2837
S'355'
p2838
aS'300'
p2839
asS'126'
p2840
(lp2841
S'235'
p2842
aS'300'
p2843
asS'127'
p2844
(lp2845
S'260'
p2846
aS'300'
p2847
asS'128'
p2848
(lp2849
S'321'
p2850
aS'299'
p2851
asS'129'
p2852
(lp2853
S'302'
p2854
aS'272'
p2855
asS'765'
p2856
(lp2857
S'179'
p2858
aS'283'
p2859
asS'1016'
p2860
(lp2861
S'205'
p2862
aS'295'
p2863
asS'1411'
p2864
(lp2865
S'253'
p2866
aS'300'
p2867
asS'1400'
p2868
(lp2869
S'265'
p2870
aS'300'
p2871
asS'1351'
p2872
(lp2873
S'211'
p2874
aS'274'
p2875
asS'1128'
p2876
(lp2877
S'341'
p2878
aS'300'
p2879
asS'1010'
p2880
(lp2881
S'302'
p2882
aS'300'
p2883
asS'1189'
p2884
(lp2885
S'286'
p2886
aS'300'
p2887
asS'1011'
p2888
(lp2889
S'180'
p2890
aS'300'
p2891
asS'414'
p2892
(lp2893
S'302'
p2894
aS'300'
p2895
asS'415'
p2896
(lp2897
S'347'
p2898
aS'300'
p2899
asS'416'
p2900
(lp2901
S'252'
p2902
aS'300'
p2903
asS'417'
p2904
(lp2905
S'318'
p2906
aS'300'
p2907
asS'410'
p2908
(lp2909
S'188'
p2910
aS'285'
p2911
asS'411'
p2912
(lp2913
S'317'
p2914
aS'301'
p2915
asS'412'
p2916
(lp2917
S'200'
p2918
aS'300'
p2919
asS'413'
p2920
(lp2921
S'354'
p2922
aS'300'
p2923
asS'920'
p2924
(lp2925
S'276'
p2926
aS'294'
p2927
asS'921'
p2928
(lp2929
S'308'
p2930
aS'300'
p2931
asS'922'
p2932
(lp2933
S'326'
p2934
aS'300'
p2935
asS'923'
p2936
(lp2937
S'254'
p2938
aS'300'
p2939
asS'418'
p2940
(lp2941
S'210'
p2942
aS'273'
p2943
asS'419'
p2944
(lp2945
S'201'
p2946
aS'275'
p2947
asS'776'
p2948
(lp2949
S'170'
p2950
aS'288'
p2951
asS'499'
p2952
(lp2953
S'273'
p2954
aS'300'
p2955
asS'319'
p2956
(lp2957
S'322'
p2958
aS'300'
p2959
asS'318'
p2960
(lp2961
S'246'
p2962
aS'300'
p2963
asS'1235'
p2964
(lp2965
S'331'
p2966
aS'300'
p2967
asS'313'
p2968
(lp2969
S'219'
p2970
aS'246'
p2971
asS'312'
p2972
(lp2973
S'268'
p2974
aS'300'
p2975
asS'311'
p2976
(lp2977
S'255'
p2978
aS'300'
p2979
asS'310'
p2980
(lp2981
S'225'
p2982
aS'300'
p2983
asS'317'
p2984
(lp2985
S'260'
p2986
aS'300'
p2987
asS'1236'
p2988
(lp2989
S'265'
p2990
aS'300'
p2991
asS'315'
p2992
(lp2993
S'347'
p2994
aS'300'
p2995
asS'314'
p2996
(lp2997
S'361'
p2998
aS'300'
p2999
asS'1237'
p3000
(lp3001
S'239'
p3002
aS'300'
p3003
asS'861'
p3004
(lp3005
S'387'
p3006
aS'300'
p3007
asS'1126'
p3008
(lp3009
S'67'
p3010
aS'144'
p3011
asS'1181'
p3012
(lp3013
S'363'
p3014
aS'300'
p3015
asS'496'
p3016
(lp3017
S'286'
p3018
aS'300'
p3019
asS'1134'
p3020
(lp3021
S'373'
p3022
aS'300'
p3023
asS'1338'
p3024
(lp3025
S'235'
p3026
aS'300'
p3027
asS'832'
p3028
(lp3029
S'274'
p3030
aS'300'
p3031
asS'833'
p3032
(lp3033
S'321'
p3034
aS'299'
p3035
asS'830'
p3036
(lp3037
S'275'
p3038
aS'300'
p3039
asS'497'
p3040
(lp3041
S'281'
p3042
aS'300'
p3043
asS'836'
p3044
(lp3045
S'269'
p3046
aS'300'
p3047
asS'837'
p3048
(lp3049
S'167'
p3050
aS'209'
p3051
asS'835'
p3052
(lp3053
S'230'
p3054
aS'290'
p3055
asS'839'
p3056
(lp3057
S'287'
p3058
aS'300'
p3059
asS'1398'
p3060
(lp3061
S'259'
p3062
aS'294'
p3063
asS'1424'
p3064
(lp3065
S'288'
p3066
aS'300'
p3067
asS'808'
p3068
(lp3069
S'303'
p3070
aS'300'
p3071
asS'1335'
p3072
(lp3073
S'269'
p3074
aS'300'
p3075
asS'3'
p3076
(lp3077
S'238'
p3078
aS'300'
p3079
asS'1030'
p3080
(lp3081
S'277'
p3082
aS'300'
p3083
asS'1305'
p3084
(lp3085
S'267'
p3086
aS'300'
p3087
asS'368'
p3088
(lp3089
S'268'
p3090
aS'300'
p3091
asS'369'
p3092
(lp3093
S'287'
p3094
aS'300'
p3095
asS'366'
p3096
(lp3097
S'276'
p3098
aS'300'
p3099
asS'367'
p3100
(lp3101
S'348'
p3102
aS'300'
p3103
asS'364'
p3104
(lp3105
S'287'
p3106
aS'300'
p3107
asS'365'
p3108
(lp3109
S'284'
p3110
aS'294'
p3111
asS'362'
p3112
(lp3113
S'208'
p3114
aS'297'
p3115
asS'363'
p3116
(lp3117
S'274'
p3118
aS'300'
p3119
asS'360'
p3120
(lp3121
S'269'
p3122
aS'300'
p3123
asS'361'
p3124
(lp3125
S'230'
p3126
aS'186'
p3127
asS'1168'
p3128
(lp3129
S'288'
p3130
aS'293'
p3131
asS'1336'
p3132
(lp3133
S'219'
p3134
aS'284'
p3135
asS'1138'
p3136
(lp3137
S'155'
p3138
aS'252'
p3139
asS'1238'
p3140
(lp3141
S'329'
p3142
aS'300'
p3143
asS'1397'
p3144
(lp3145
S'243'
p3146
aS'300'
p3147
asS'1330'
p3148
(lp3149
S'246'
p3150
aS'300'
p3151
asS'380'
p3152
(lp3153
S'241'
p3154
aS'289'
p3155
asS'381'
p3156
(lp3157
S'216'
p3158
aS'300'
p3159
asS'382'
p3160
(lp3161
S'229'
p3162
aS'300'
p3163
asS'383'
p3164
(lp3165
S'152'
p3166
aS'210'
p3167
asS'384'
p3168
(lp3169
S'315'
p3170
aS'300'
p3171
asS'385'
p3172
(lp3173
S'315'
p3174
aS'300'
p3175
asS'386'
p3176
(lp3177
S'263'
p3178
aS'300'
p3179
asS'388'
p3180
(lp3181
S'318'
p3182
aS'300'
p3183
asS'389'
p3184
(lp3185
S'238'
p3186
aS'300'
p3187
asS'1332'
p3188
(lp3189
S'237'
p3190
aS'300'
p3191
asS'784'
p3192
(lp3193
S'264'
p3194
aS'299'
p3195
asS'1188'
p3196
(lp3197
S'324'
p3198
aS'300'
p3199
asS'786'
p3200
(lp3201
S'244'
p3202
aS'300'
p3203
asS'787'
p3204
(lp3205
S'222'
p3206
aS'280'
p3207
asS'780'
p3208
(lp3209
S'241'
p3210
aS'300'
p3211
asS'781'
p3212
(lp3213
S'288'
p3214
aS'300'
p3215
asS'1449'
p3216
(lp3217
S'278'
p3218
aS'300'
p3219
asS'1396'
p3220
(lp3221
S'307'
p3222
aS'300'
p3223
asS'788'
p3224
(lp3225
S'309'
p3226
aS'300'
p3227
asS'789'
p3228
(lp3229
S'146'
p3230
aS'284'
p3231
asS'1174'
p3232
(lp3233
S'253'
p3234
aS'296'
p3235
asS'860'
p3236
(lp3237
S'305'
p3238
aS'252'
p3239
asS'1253'
p3240
(lp3241
S'231'
p3242
aS'297'
p3243
asS'1252'
p3244
(lp3245
S'200'
p3246
aS'300'
p3247
asS'605'
p3248
(lp3249
S'71'
p3250
aS'134'
p3251
asS'579'
p3252
(lp3253
S'323'
p3254
aS'300'
p3255
asS'578'
p3256
(lp3257
S'286'
p3258
aS'300'
p3259
asS'882'
p3260
(lp3261
S'138'
p3262
aS'184'
p3263
asS'573'
p3264
(lp3265
S'282'
p3266
aS'300'
p3267
asS'572'
p3268
(lp3269
S'146'
p3270
aS'259'
p3271
asS'571'
p3272
(lp3273
S'337'
p3274
aS'300'
p3275
asS'570'
p3276
(lp3277
S'296'
p3278
aS'292'
p3279
asS'577'
p3280
(lp3281
S'312'
p3282
aS'299'
p3283
asS'576'
p3284
(lp3285
S'102'
p3286
aS'193'
p3287
asS'574'
p3288
(lp3289
S'222'
p3290
aS'285'
p3291
asS'60'
p3292
(lp3293
S'234'
p3294
aS'255'
p3295
asS'61'
p3296
(lp3297
S'273'
p3298
aS'228'
p3299
asS'258'
p3300
(lp3301
S'234'
p3302
aS'300'
p3303
asS'259'
p3304
(lp3305
S'241'
p3306
aS'300'
p3307
asS'64'
p3308
(lp3309
S'321'
p3310
aS'300'
p3311
asS'65'
p3312
(lp3313
S'129'
p3314
aS'216'
p3315
asS'66'
p3316
(lp3317
S'188'
p3318
aS'282'
p3319
asS'67'
p3320
(lp3321
S'250'
p3322
aS'296'
p3323
asS'252'
p3324
(lp3325
S'170'
p3326
aS'281'
p3327
asS'69'
p3328
(lp3329
S'198'
p3330
aS'300'
p3331
asS'250'
p3332
(lp3333
S'371'
p3334
aS'300'
p3335
asS'251'
p3336
(lp3337
S'262'
p3338
aS'300'
p3339
asS'256'
p3340
(lp3341
S'318'
p3342
aS'300'
p3343
asS'257'
p3344
(lp3345
S'270'
p3346
aS'300'
p3347
asS'254'
p3348
(lp3349
S'165'
p3350
aS'239'
p3351
asS'600'
p3352
(lp3353
S'252'
p3354
aS'300'
p3355
asS'1408'
p3356
(lp3357
S'207'
p3358
aS'204'
p3359
asS'1371'
p3360
(lp3361
S'281'
p3362
aS'300'
p3363
asS'1271'
p3364
(lp3365
S'211'
p3366
aS'279'
p3367
asS'1422'
p3368
(lp3369
S'213'
p3370
aS'300'
p3371
asS'1425'
p3372
(lp3373
S'189'
p3374
aS'283'
p3375
asS'603'
p3376
(lp3377
S'372'
p3378
aS'300'
p3379
asS'1427'
p3380
(lp3381
S'303'
p3382
aS'300'
p3383
asS'1370'
p3384
(lp3385
S'257'
p3386
aS'300'
p3387
asS'1429'
p3388
(lp3389
S'292'
p3390
aS'300'
p3391
asS'1428'
p3392
(lp3393
S'324'
p3394
aS'300'
p3395
asS'1172'
p3396
(lp3397
S'135'
p3398
aS'252'
p3399
asS'602'
p3400
(lp3401
S'148'
p3402
aS'297'
p3403
asS'939'
p3404
(lp3405
S'228'
p3406
aS'274'
p3407
asS'731'
p3408
(lp3409
S'154'
p3410
aS'288'
p3411
asS'730'
p3412
(lp3413
S'319'
p3414
aS'300'
p3415
asS'733'
p3416
(lp3417
S'332'
p3418
aS'300'
p3419
asS'732'
p3420
(lp3421
S'262'
p3422
aS'300'
p3423
asS'735'
p3424
(lp3425
S'223'
p3426
aS'288'
p3427
asS'734'
p3428
(lp3429
S'138'
p3430
aS'227'
p3431
asS'508'
p3432
(lp3433
S'218'
p3434
aS'300'
p3435
asS'509'
p3436
(lp3437
S'315'
p3438
aS'300'
p3439
asS'506'
p3440
(lp3441
S'290'
p3442
aS'285'
p3443
asS'507'
p3444
(lp3445
S'229'
p3446
aS'300'
p3447
asS'504'
p3448
(lp3449
S'183'
p3450
aS'299'
p3451
asS'505'
p3452
(lp3453
S'348'
p3454
aS'300'
p3455
asS'502'
p3456
(lp3457
S'80'
p3458
aS'184'
p3459
asS'503'
p3460
(lp3461
S'231'
p3462
aS'300'
p3463
asS'500'
p3464
(lp3465
S'288'
p3466
aS'293'
p3467
asS'501'
p3468
(lp3469
S'141'
p3470
aS'210'
p3471
asS'630'
p3472
(lp3473
S'211'
p3474
aS'300'
p3475
asS'631'
p3476
(lp3477
S'316'
p3478
aS'300'
p3479
asS'632'
p3480
(lp3481
S'188'
p3482
aS'300'
p3483
asS'633'
p3484
(lp3485
S'240'
p3486
aS'300'
p3487
asS'469'
p3488
(lp3489
S'271'
p3490
aS'300'
p3491
asS'468'
p3492
(lp3493
S'266'
p3494
aS'300'
p3495
asS'636'
p3496
(lp3497
S'238'
p3498
aS'299'
p3499
asS'637'
p3500
(lp3501
S'253'
p3502
aS'300'
p3503
asS'465'
p3504
(lp3505
S'231'
p3506
aS'300'
p3507
asS'464'
p3508
(lp3509
S'243'
p3510
aS'292'
p3511
asS'467'
p3512
(lp3513
S'296'
p3514
aS'300'
p3515
asS'466'
p3516
(lp3517
S'185'
p3518
aS'258'
p3519
asS'461'
p3520
(lp3521
S'220'
p3522
aS'296'
p3523
asS'460'
p3524
(lp3525
S'299'
p3526
aS'300'
p3527
asS'463'
p3528
(lp3529
S'267'
p3530
aS'300'
p3531
asS'462'
p3532
(lp3533
S'122'
p3534
aS'205'
p3535
asS'1379'
p3536
(lp3537
S'349'
p3538
aS'300'
p3539
asS'901'
p3540
(lp3541
S'308'
p3542
aS'300'
p3543
asS'168'
p3544
(lp3545
S'354'
p3546
aS'300'
p3547
asS'169'
p3548
(lp3549
S'321'
p3550
aS'300'
p3551
asS'1378'
p3552
(lp3553
S'392'
p3554
aS'300'
p3555
asS'164'
p3556
(lp3557
S'184'
p3558
aS'300'
p3559
asS'165'
p3560
(lp3561
S'337'
p3562
aS'300'
p3563
asS'166'
p3564
(lp3565
S'233'
p3566
aS'300'
p3567
asS'167'
p3568
(lp3569
S'329'
p3570
aS'300'
p3571
asS'160'
p3572
(lp3573
S'225'
p3574
aS'299'
p3575
asS'161'
p3576
(lp3577
S'210'
p3578
aS'295'
p3579
asS'162'
p3580
(lp3581
S'186'
p3582
aS'281'
p3583
asS'163'
p3584
(lp3585
S'154'
p3586
aS'300'
p3587
asS'964'
p3588
(lp3589
S'320'
p3590
aS'300'
p3591
asS'965'
p3592
(lp3593
S'299'
p3594
aS'300'
p3595
asS'966'
p3596
(lp3597
S'336'
p3598
aS'300'
p3599
asS'967'
p3600
(lp3601
S'67'
p3602
aS'148'
p3603
asS'960'
p3604
(lp3605
S'131'
p3606
aS'192'
p3607
asS'961'
p3608
(lp3609
S'259'
p3610
aS'300'
p3611
asS'962'
p3612
(lp3613
S'238'
p3614
aS'300'
p3615
asS'963'
p3616
(lp3617
S'61'
p3618
aS'132'
p3619
asS'1129'
p3620
(lp3621
S'159'
p3622
aS'156'
p3623
asS'1373'
p3624
(lp3625
S'193'
p3626
aS'301'
p3627
asS'968'
p3628
(lp3629
S'281'
p3630
aS'300'
p3631
asS'969'
p3632
(lp3633
S'320'
p3634
aS'300'
p3635
asS'936'
p3636
(lp3637
S'294'
p3638
aS'300'
p3639
asS'1106'
p3640
(lp3641
S'304'
p3642
aS'300'
p3643
asS'1107'
p3644
(lp3645
S'225'
p3646
aS'298'
p3647
asS'1104'
p3648
(lp3649
S'336'
p3650
aS'300'
p3651
asS'1105'
p3652
(lp3653
S'212'
p3654
aS'298'
p3655
asS'1102'
p3656
(lp3657
S'250'
p3658
aS'300'
p3659
asS'1103'
p3660
(lp3661
S'262'
p3662
aS'287'
p3663
asS'1100'
p3664
(lp3665
S'232'
p3666
aS'294'
p3667
asS'1101'
p3668
(lp3669
S'250'
p3670
aS'300'
p3671
asS'934'
p3672
(lp3673
S'267'
p3674
aS'297'
p3675
asS'1274'
p3676
(lp3677
S'169'
p3678
aS'270'
p3679
asS'908'
p3680
(lp3681
S'244'
p3682
aS'296'
p3683
asS'1108'
p3684
(lp3685
S'324'
p3686
aS'300'
p3687
asS'1109'
p3688
(lp3689
S'252'
p3690
aS'291'
p3691
asS'1096'
p3692
(lp3693
S'139'
p3694
aS'248'
p3695
asS'1090'
p3696
(lp3697
S'238'
p3698
aS'292'
p3699
asS'1275'
p3700
(lp3701
S'338'
p3702
aS'299'
p3703
asS'1390'
p3704
(lp3705
S'273'
p3706
aS'300'
p3707
asS'1158'
p3708
(lp3709
S'248'
p3710
aS'291'
p3711
asS'1241'
p3712
(lp3713
S'246'
p3714
aS'299'
p3715
asS'878'
p3716
(lp3717
S'317'
p3718
aS'300'
p3719
asS'879'
p3720
(lp3721
S'316'
p3722
aS'300'
p3723
asS'876'
p3724
(lp3725
S'242'
p3726
aS'300'
p3727
asS'877'
p3728
(lp3729
S'310'
p3730
aS'300'
p3731
asS'874'
p3732
(lp3733
S'250'
p3734
aS'300'
p3735
asS'875'
p3736
(lp3737
S'219'
p3738
aS'300'
p3739
asS'873'
p3740
(lp3741
S'285'
p3742
aS'298'
p3743
asS'870'
p3744
(lp3745
S'251'
p3746
aS'300'
p3747
asS'871'
p3748
(lp3749
S'234'
p3750
aS'300'
p3751
asS'1155'
p3752
(lp3753
S'162'
p3754
aS'126'
p3755
asS'1242'
p3756
(lp3757
S'276'
p3758
aS'297'
p3759
asS'1154'
p3760
(lp3761
S'377'
p3762
aS'300'
p3763
asS'9'
p3764
(lp3765
S'83'
p3766
aS'138'
p3767
asS'1157'
p3768
(lp3769
S'290'
p3770
aS'300'
p3771
asS'1244'
p3772
(lp3773
S'184'
p3774
aS'300'
p3775
asS'890'
p3776
(lp3777
S'257'
p3778
aS'298'
p3779
asS'891'
p3780
(lp3781
S'235'
p3782
aS'300'
p3783
asS'892'
p3784
(lp3785
S'222'
p3786
aS'300'
p3787
asS'893'
p3788
(lp3789
S'274'
p3790
aS'300'
p3791
asS'894'
p3792
(lp3793
S'153'
p3794
aS'237'
p3795
asS'895'
p3796
(lp3797
S'213'
p3798
aS'300'
p3799
asS'896'
p3800
(lp3801
S'273'
p3802
aS'300'
p3803
asS'897'
p3804
(lp3805
S'286'
p3806
aS'299'
p3807
asS'898'
p3808
(lp3809
S'103'
p3810
aS'202'
p3811
asS'899'
p3812
(lp3813
S'217'
p3814
aS'300'
p3815
asS'1087'
p3816
(lp3817
S'174'
p3818
aS'262'
p3819
asS'646'
p3820
(lp3821
S'266'
p3822
aS'299'
p3823
asS'1116'
p3824
(lp3825
S'269'
p3826
aS'300'
p3827
asS'1099'
p3828
(lp3829
S'363'
p3830
aS'300'
p3831
asS'649'
p3832
(lp3833
S'18'
p3834
aS'48'
p3835
asS'1199'
p3836
(lp3837
S'44'
p3838
aS'149'
p3839
asS'1247'
p3840
(lp3841
S'168'
p3842
aS'299'
p3843
asS'1153'
p3844
(lp3845
S'233'
p3846
aS'300'
p3847
asS'1277'
p3848
(lp3849
S'12'
p3850
aS'38'
p3851
asS'648'
p3852
(lp3853
S'292'
p3854
aS'300'
p3855
asS'1273'
p3856
(lp3857
S'268'
p3858
aS'288'
p3859
asS'1440'
p3860
(lp3861
S'133'
p3862
aS'224'
p3863
asS'1363'
p3864
(lp3865
S'332'
p3866
aS'300'
p3867
asS'1086'
p3868
(lp3869
S'200'
p3870
aS'297'
p3871
asS'1393'
p3872
(lp3873
S'91'
p3874
aS'162'
p3875
asS'1448'
p3876
(lp3877
S'211'
p3878
aS'300'
p3879
asS'357'
p3880
(lp3881
S'251'
p3882
aS'300'
p3883
asS'356'
p3884
(lp3885
S'250'
p3886
aS'300'
p3887
asS'355'
p3888
(lp3889
S'350'
p3890
aS'300'
p3891
asS'354'
p3892
(lp3893
S'239'
p3894
aS'300'
p3895
asS'353'
p3896
(lp3897
S'213'
p3898
aS'277'
p3899
asS'352'
p3900
(lp3901
S'198'
p3902
aS'300'
p3903
asS'950'
p3904
(lp3905
S'276'
p3906
aS'300'
p3907
asS'803'
p3908
(lp3909
S'180'
p3910
aS'240'
p3911
asS'802'
p3912
(lp3913
S'250'
p3914
aS'282'
p3915
asS'801'
p3916
(lp3917
S'288'
p3918
aS'300'
p3919
asS'800'
p3920
(lp3921
S'245'
p3922
aS'300'
p3923
asS'807'
p3924
(lp3925
S'212'
p3926
aS'297'
p3927
asS'806'
p3928
(lp3929
S'247'
p3930
aS'300'
p3931
asS'359'
p3932
(lp3933
S'125'
p3934
aS'284'
p3935
asS'804'
p3936
(lp3937
S'274'
p3938
aS'300'
p3939
asS'216'
p3940
(lp3941
S'299'
p3942
aS'300'
p3943
asS'217'
p3944
(lp3945
S'372'
p3946
aS'300'
p3947
asS'214'
p3948
(lp3949
S'103'
p3950
aS'162'
p3951
asS'215'
p3952
(lp3953
S'319'
p3954
aS'300'
p3955
asS'212'
p3956
(lp3957
S'303'
p3958
aS'300'
p3959
asS'213'
p3960
(lp3961
S'138'
p3962
aS'198'
p3963
asS'210'
p3964
(lp3965
S'190'
p3966
aS'300'
p3967
asS'211'
p3968
(lp3969
S'312'
p3970
aS'300'
p3971
asS'762'
p3972
(lp3973
S'258'
p3974
aS'300'
p3975
asS'763'
p3976
(lp3977
S'216'
p3978
aS'298'
p3979
asS'760'
p3980
(lp3981
S'251'
p3982
aS'300'
p3983
asS'761'
p3984
(lp3985
S'254'
p3986
aS'300'
p3987
asS'766'
p3988
(lp3989
S'265'
p3990
aS'300'
p3991
asS'767'
p3992
(lp3993
S'220'
p3994
aS'296'
p3995
asS'764'
p3996
(lp3997
S'161'
p3998
aS'233'
p3999
asS'219'
p4000
(lp4001
S'299'
p4002
aS'300'
p4003
asS'957'
p4004
(lp4005
S'272'
p4006
aS'300'
p4007
asS'956'
p4008
(lp4009
S'283'
p4010
aS'126'
p4011
asS'1033'
p4012
(lp4013
S'163'
p4014
aS'282'
p4015
asS'1386'
p4016
(lp4017
S'307'
p4018
aS'300'
p4019
asS'1169'
p4020
(lp4021
S'344'
p4022
aS'300'
p4023
asS'1447'
p4024
(lp4025
S'153'
p4026
aS'120'
p4027
asS'1283'
p4028
(lp4029
S'58'
p4030
aS'113'
p4031
asS'1078'
p4032
(lp4033
S'296'
p4034
aS'300'
p4035
asS'1110'
p4036
(lp4037
S'279'
p4038
aS'300'
p4039
asS'1076'
p4040
(lp4041
S'282'
p4042
aS'300'
p4043
asS'1077'
p4044
(lp4045
S'298'
p4046
aS'300'
p4047
asS'1074'
p4048
(lp4049
S'143'
p4050
aS'167'
p4051
asS'1075'
p4052
(lp4053
S'181'
p4054
aS'292'
p4055
asS'1072'
p4056
(lp4057
S'233'
p4058
aS'300'
p4059
asS'1073'
p4060
(lp4061
S'213'
p4062
aS'299'
p4063
asS'1070'
p4064
(lp4065
S'323'
p4066
aS'299'
p4067
asS'1071'
p4068
(lp4069
S'244'
p4070
aS'300'
p4071
asS'289'
p4072
(lp4073
S'207'
p4074
aS'287'
p4075
asS'288'
p4076
(lp4077
S'224'
p4078
aS'284'
p4079
asS'1299'
p4080
(lp4081
S'188'
p4082
aS'274'
p4083
asS'1003'
p4084
(lp4085
S'220'
p4086
aS'299'
p4087
asS'4'
p4088
(lp4089
S'186'
p4090
aS'300'
p4091
asS'281'
p4092
(lp4093
S'295'
p4094
aS'300'
p4095
asS'1115'
p4096
(lp4097
S'280'
p4098
aS'300'
p4099
asS'283'
p4100
(lp4101
S'56'
p4102
aS'108'
p4103
asS'282'
p4104
(lp4105
S'267'
p4106
aS'300'
p4107
asS'285'
p4108
(lp4109
S'248'
p4110
aS'286'
p4111
asS'284'
p4112
(lp4113
S'209'
p4114
aS'300'
p4115
asS'287'
p4116
(lp4117
S'275'
p4118
aS'300'
p4119
asS'286'
p4120
(lp4121
S'198'
p4122
aS'271'
p4123
asS'1094'
p4124
(lp4125
S'236'
p4126
aS'298'
p4127
asS'1083'
p4128
(lp4129
S'331'
p4130
aS'300'
p4131
asS'1097'
p4132
(lp4133
S'315'
p4134
aS'300'
p4135
asS'678'
p4136
(lp4137
S'247'
p4138
aS'234'
p4139
asS'1091'
p4140
(lp4141
S'245'
p4142
aS'300'
p4143
asS'1092'
p4144
(lp4145
S'296'
p4146
aS'300'
p4147
asS'1093'
p4148
(lp4149
S'183'
p4150
aS'288'
p4151
asS'674'
p4152
(lp4153
S'399'
p4154
aS'300'
p4155
asS'675'
p4156
(lp4157
S'274'
p4158
aS'300'
p4159
asS'676'
p4160
(lp4161
S'222'
p4162
aS'288'
p4163
asS'677'
p4164
(lp4165
S'245'
p4166
aS'300'
p4167
asS'1098'
p4168
(lp4169
S'248'
p4170
aS'300'
p4171
asS'671'
p4172
(lp4173
S'226'
p4174
aS'299'
p4175
asS'672'
p4176
(lp4177
S'113'
p4178
aS'199'
p4179
asS'673'
p4180
(lp4181
S'266'
p4182
aS'300'
p4183
asS'262'
p4184
(lp4185
S'268'
p4186
aS'300'
p4187
asS'261'
p4188
(lp4189
S'242'
p4190
aS'300'
p4191
asS'260'
p4192
(lp4193
S'223'
p4194
aS'300'
p4195
asS'267'
p4196
(lp4197
S'117'
p4198
aS'166'
p4199
asS'266'
p4200
(lp4201
S'398'
p4202
aS'300'
p4203
asS'265'
p4204
(lp4205
S'230'
p4206
aS'300'
p4207
asS'264'
p4208
(lp4209
S'294'
p4210
aS'300'
p4211
asS'1121'
p4212
(lp4213
S'190'
p4214
aS'263'
p4215
asS'1031'
p4216
(lp4217
S'162'
p4218
aS'276'
p4219
asS'269'
p4220
(lp4221
S'182'
p4222
aS'272'
p4223
asS'268'
p4224
(lp4225
S'331'
p4226
aS'300'
p4227
asS'701'
p4228
(lp4229
S'195'
p4230
aS'291'
p4231
asS'59'
p4232
(lp4233
S'234'
p4234
aS'300'
p4235
asS'58'
p4236
(lp4237
S'329'
p4238
aS'300'
p4239
asS'1215'
p4240
(lp4241
S'161'
p4242
aS'251'
p4243
asS'55'
p4244
(lp4245
S'284'
p4246
aS'300'
p4247
asS'54'
p4248
(lp4249
S'234'
p4250
aS'297'
p4251
asS'57'
p4252
(lp4253
S'220'
p4254
aS'290'
p4255
asS'56'
p4256
(lp4257
S'154'
p4258
aS'300'
p4259
asS'51'
p4260
(lp4261
S'242'
p4262
aS'299'
p4263
asS'50'
p4264
(lp4265
S'102'
p4266
aS'110'
p4267
asS'53'
p4268
(lp4269
S'257'
p4270
aS'286'
p4271
asS'52'
p4272
(lp4273
S'188'
p4274
aS'281'
p4275
asS'537'
p4276
(lp4277
S'228'
p4278
aS'300'
p4279
asS'536'
p4280
(lp4281
S'252'
p4282
aS'300'
p4283
asS'535'
p4284
(lp4285
S'119'
p4286
aS'222'
p4287
asS'63'
p4288
(lp4289
S'252'
p4290
aS'291'
p4291
asS'533'
p4292
(lp4293
S'174'
p4294
aS'291'
p4295
asS'532'
p4296
(lp4297
S'311'
p4298
aS'299'
p4299
asS'531'
p4300
(lp4301
S'236'
p4302
aS'300'
p4303
asS'530'
p4304
(lp4305
S'298'
p4306
aS'299'
p4307
asS'1337'
p4308
(lp4309
S'201'
p4310
aS'279'
p4311
asS'1402'
p4312
(lp4313
S'117'
p4314
aS'217'
p4315
asS'1412'
p4316
(lp4317
S'242'
p4318
aS'300'
p4319
asS'1413'
p4320
(lp4321
S'149'
p4322
aS'219'
p4323
asS'1414'
p4324
(lp4325
S'184'
p4326
aS'279'
p4327
asS'1415'
p4328
(lp4329
S'279'
p4330
aS'300'
p4331
asS'539'
p4332
(lp4333
S'243'
p4334
aS'300'
p4335
asS'538'
p4336
(lp4337
S'83'
p4338
aS'141'
p4339
asS'987'
p4340
(lp4341
S'315'
p4342
aS'300'
p4343
asS'775'
p4344
(lp4345
S'292'
p4346
aS'300'
p4347
asS'988'
p4348
(lp4349
S'295'
p4350
aS'300'
p4351
asS'989'
p4352
(lp4353
S'257'
p4354
aS'300'
p4355
asS'1171'
p4356
(lp4357
S'303'
p4358
aS'300'
p4359
asS'match_id'
p4360
(lp4361
S'total_runs'
p4362
aS'total_balls'
p4363
asS'1324'
p4364
(lp4365
S'248'
p4366
aS'300'
p4367
asS'774'
p4368
(lp4369
S'223'
p4370
aS'296'
p4371
asS'983'
p4372
(lp4373
S'383'
p4374
aS'300'
p4375
asS'980'
p4376
(lp4377
S'211'
p4378
aS'300'
p4379
asS'981'
p4380
(lp4381
S'268'
p4382
aS'300'
p4383
asS'986'
p4384
(lp4385
S'119'
p4386
aS'221'
p4387
asS'777'
p4388
(lp4389
S'132'
p4390
aS'232'
p4391
asS'984'
p4392
(lp4393
S'302'
p4394
aS'300'
p4395
asS'985'
p4396
(lp4397
S'264'
p4398
aS'300'
p4399
asS'115'
p4400
(lp4401
S'247'
p4402
aS'300'
p4403
asS'114'
p4404
(lp4405
S'270'
p4406
aS'297'
p4407
asS'117'
p4408
(lp4409
S'351'
p4410
aS'300'
p4411
asS'116'
p4412
(lp4413
S'342'
p4414
aS'300'
p4415
asS'111'
p4416
(lp4417
S'258'
p4418
aS'298'
p4419
asS'110'
p4420
(lp4421
S'260'
p4422
aS'300'
p4423
asS'112'
p4424
(lp4425
S'285'
p4426
aS'299'
p4427
asS'771'
p4428
(lp4429
S'231'
p4430
aS'300'
p4431
asS'119'
p4432
(lp4433
S'231'
p4434
aS'295'
p4435
asS'118'
p4436
(lp4437
S'260'
p4438
aS'300'
p4439
asS'1446'
p4440
(lp4441
S'271'
p4442
aS'300'
p4443
asS'770'
p4444
(lp4445
S'273'
p4446
aS'300'
p4447
asS'1418'
p4448
(lp4449
S'248'
p4450
aS'300'
p4451
asS'1289'
p4452
(lp4453
S'308'
p4454
aS'300'
p4455
asS'773'
p4456
(lp4457
S'268'
p4458
aS'300'
p4459
asS'772'
p4460
(lp4461
S'286'
p4462
aS'300'
p4463
asS'953'
p4464
(lp4465
S'272'
p4466
aS'300'
p4467
asS'429'
p4468
(lp4469
S'233'
p4470
aS'300'
p4471
asS'1257'
p4472
(lp4473
S'224'
p4474
aS'300'
p4475
asS'1254'
p4476
(lp4477
S'310'
p4478
aS'300'
p4479
asS'534'
p4480
(lp4481
S'241'
p4482
aS'300'
p4483
asS'919'
p4484
(lp4485
S'232'
p4486
aS'300'
p4487
asS'918'
p4488
(lp4489
S'201'
p4490
aS'300'
p4491
asS'1250'
p4492
(lp4493
S'279'
p4494
aS'290'
p4495
asS'1251'
p4496
(lp4497
S'327'
p4498
aS'300'
p4499
asS'421'
p4500
(lp4501
S'267'
p4502
aS'300'
p4503
asS'420'
p4504
(lp4505
S'262'
p4506
aS'300'
p4507
asS'423'
p4508
(lp4509
S'306'
p4510
aS'300'
p4511
asS'422'
p4512
(lp4513
S'236'
p4514
aS'300'
p4515
asS'425'
p4516
(lp4517
S'185'
p4518
aS'263'
p4519
asS'424'
p4520
(lp4521
S'220'
p4522
aS'292'
p4523
asS'427'
p4524
(lp4525
S'288'
p4526
aS'300'
p4527
asS'426'
p4528
(lp4529
S'238'
p4530
aS'300'
p4531
asS'308'
p4532
(lp4533
S'181'
p4534
aS'274'
p4535
asS'309'
p4536
(lp4537
S'282'
p4538
aS'299'
p4539
asS'1420'
p4540
(lp4541
S'271'
p4542
aS'300'
p4543
asS'300'
p4544
(lp4545
S'300'
p4546
aS'300'
p4547
asS'301'
p4548
(lp4549
S'226'
p4550
aS'298'
p4551
asS'302'
p4552
(lp4553
S'306'
p4554
aS'300'
p4555
asS'303'
p4556
(lp4557
S'288'
p4558
aS'300'
p4559
asS'304'
p4560
(lp4561
S'187'
p4562
aS'138'
p4563
asS'952'
p4564
(lp4565
S'222'
p4566
aS'300'
p4567
asS'306'
p4568
(lp4569
S'142'
p4570
aS'218'
p4571
asS'307'
p4572
(lp4573
S'331'
p4574
aS'300'
p4575
asS'1343'
p4576
(lp4577
S'236'
p4578
aS'300'
p4579
asS'825'
p4580
(lp4581
S'148'
p4582
aS'186'
p4583
asS'1407'
p4584
(lp4585
S'67'
p4586
aS'186'
p4587
asS'1263'
p4588
(lp4589
S'253'
p4590
aS'300'
p4591
asS'1367'
p4592
(lp4593
S'281'
p4594
aS'300'
p4595
asS'824'
p4596
(lp4597
S'251'
p4598
aS'300'
p4599
asS'827'
p4600
(lp4601
S'233'
p4602
aS'300'
p4603
asS'1389'
p4604
(lp4605
S'353'
p4606
aS'300'
p4607
asS'847'
p4608
(lp4609
S'293'
p4610
aS'300'
p4611
asS'846'
p4612
(lp4613
S'271'
p4614
aS'300'
p4615
asS'845'
p4616
(lp4617
S'384'
p4618
aS'300'
p4619
asS'844'
p4620
(lp4621
S'269'
p4622
aS'300'
p4623
asS'843'
p4624
(lp4625
S'188'
p4626
aS'172'
p4627
asS'842'
p4628
(lp4629
S'290'
p4630
aS'300'
p4631
asS'841'
p4632
(lp4633
S'270'
p4634
aS'300'
p4635
asS'1381'
p4636
(lp4637
S'200'
p4638
aS'289'
p4639
asS'853'
p4640
(lp4641
S'284'
p4642
aS'300'
p4643
asS'849'
p4644
(lp4645
S'227'
p4646
aS'300'
p4647
asS'820'
p4648
(lp4649
S'280'
p4650
aS'294'
p4651
asS'1333'
p4652
(lp4653
S'237'
p4654
aS'290'
p4655
asS'823'
p4656
(lp4657
S'209'
p4658
aS'299'
p4659
asS'1313'
p4660
(lp4661
S'205'
p4662
aS'300'
p4663
asS'1209'
p4664
(lp4665
S'309'
p4666
aS'300'
p4667
asS'822'
p4668
(lp4669
S'307'
p4670
aS'300'
p4671
asS'1249'
p4672
(lp4673
S'298'
p4674
aS'300'
p4675
asS'1322'
p4676
(lp4677
S'266'
p4678
aS'282'
p4679
asS'1164'
p4680
(lp4681
S'265'
p4682
aS'300'
p4683
asS'1323'
p4684
(lp4685
S'223'
p4686
aS'300'
p4687
asS'954'
p4688
(lp4689
S'304'
p4690
aS'300'
p4691
asS'1034'
p4692
(lp4693
S'280'
p4694
aS'300'
p4695
asS'1127'
p4696
(lp4697
S'318'
p4698
aS'300'
p4699
asS'1320'
p4700
(lp4701
S'241'
p4702
aS'298'
p4703
asS'1405'
p4704
(lp4705
S'238'
p4706
aS'265'
p4707
asS'1346'
p4708
(lp4709
S'261'
p4710
aS'300'
p4711
asS'1159'
p4712
(lp4713
S'203'
p4714
aS'300'
p4715
asS'1276'
p4716
(lp4717
S'408'
p4718
aS'300'
p4719
asS'1391'
p4720
(lp4721
S'254'
p4722
aS'300'
p4723
asS'1208'
p4724
(lp4725
S'241'
p4726
aS'300'
p4727
asS'1326'
p4728
(lp4729
S'240'
p4730
aS'300'
p4731
asS'1327'
p4732
(lp4733
S'401'
p4734
aS'300'
p4735
asS'1165'
p4736
(lp4737
S'277'
p4738
aS'300'
p4739
asS'1068'
p4740
(lp4741
S'129'
p4742
aS'196'
p4743
asS'1261'
p4744
(lp4745
S'236'
p4746
aS'300'
p4747
asS'1325'
p4748
(lp4749
S'218'
p4750
aS'300'
p4751
asS'1038'
p4752
(lp4753
S'197'
p4754
aS'296'
p4755
asS'1039'
p4756
(lp4757
S'213'
p4758
aS'289'
p4759
asS'1220'
p4760
(lp4761
S'198'
p4762
aS'300'
p4763
asS'1288'
p4764
(lp4765
S'130'
p4766
aS'266'
p4767
asS'1441'
p4768
(lp4769
S'233'
p4770
aS'237'
p4771
asS'1342'
p4772
(lp4773
S'302'
p4774
aS'300'
p4775
asS'1046'
p4776
(lp4777
S'224'
p4778
aS'300'
p4779
asS'1328'
p4780
(lp4781
S'337'
p4782
aS'282'
p4783
asS'1166'
p4784
(lp4785
S'348'
p4786
aS'300'
p4787
asS'568'
p4788
(lp4789
S'282'
p4790
aS'300'
p4791
asS'569'
p4792
(lp4793
S'236'
p4794
aS'300'
p4795
asS'750'
p4796
(lp4797
S'116'
p4798
aS'195'
p4799
asS'757'
p4800
(lp4801
S'203'
p4802
aS'262'
p4803
asS'737'
p4804
(lp4805
S'216'
p4806
aS'300'
p4807
asS'755'
p4808
(lp4809
S'189'
p4810
aS'280'
p4811
asS'754'
p4812
(lp4813
S'321'
p4814
aS'300'
p4815
asS'560'
p4816
(lp4817
S'308'
p4818
aS'300'
p4819
asS'561'
p4820
(lp4821
S'175'
p4822
aS'291'
p4823
asS'562'
p4824
(lp4825
S'125'
p4826
aS'222'
p4827
asS'563'
p4828
(lp4829
S'239'
p4830
aS'300'
p4831
asS'564'
p4832
(lp4833
S'248'
p4834
aS'300'
p4835
asS'565'
p4836
(lp4837
S'11'
p4838
aS'22'
p4839
asS'567'
p4840
(lp4841
S'350'
p4842
aS'300'
p4843
asS'739'
p4844
(lp4845
S'210'
p4846
aS'300'
p4847
asS'229'
p4848
(lp4849
S'112'
p4850
aS'183'
p4851
asS'228'
p4852
(lp4853
S'176'
p4854
aS'280'
p4855
asS'227'
p4856
(lp4857
S'220'
p4858
aS'299'
p4859
asS'226'
p4860
(lp4861
S'243'
p4862
aS'300'
p4863
asS'225'
p4864
(lp4865
S'358'
p4866
aS'300'
p4867
asS'224'
p4868
(lp4869
S'289'
p4870
aS'300'
p4871
asS'223'
p4872
(lp4873
S'228'
p4874
aS'299'
p4875
asS'222'
p4876
(lp4877
S'280'
p4878
aS'288'
p4879
asS'221'
p4880
(lp4881
S'55'
p4882
aS'81'
p4883
asS'220'
p4884
(lp4885
S'417'
p4886
aS'300'
p4887
asS'1001'
p4888
(lp4889
S'392'
p4890
aS'300'
p4891
asS'1024'
p4892
(lp4893
S'266'
p4894
aS'300'
p4895
asS'1027'
p4896
(lp4897
S'234'
p4898
aS'287'
p4899
asS'1026'
p4900
(lp4901
S'241'
p4902
aS'300'
p4903
asS'1021'
p4904
(lp4905
S'245'
p4906
aS'300'
p4907
asS'1020'
p4908
(lp4909
S'138'
p4910
aS'138'
p4911
asS'1023'
p4912
(lp4913
S'233'
p4914
aS'297'
p4915
asS'1022'
p4916
(lp4917
S'363'
p4918
aS'301'
p4919
asS'1186'
p4920
(lp4921
S'286'
p4922
aS'300'
p4923
asS'1036'
p4924
(lp4925
S'151'
p4926
aS'194'
p4927
asS'1184'
p4928
(lp4929
S'282'
p4930
aS'300'
p4931
asS'1185'
p4932
(lp4933
S'255'
p4934
aS'300'
p4935
asS'1029'
p4936
(lp4937
S'250'
p4938
aS'276'
p4939
asS'391'
p4940
(lp4941
S'305'
p4942
aS'300'
p4943
asS'1180'
p4944
(lp4945
S'145'
p4946
aS'173'
p4947
asS'1037'
p4948
(lp4949
S'263'
p4950
aS'300'
p4951
asS'726'
p4952
(lp4953
S'308'
p4954
aS'300'
p4955
asS'727'
p4956
(lp4957
S'377'
p4958
aS'300'
p4959
asS'1205'
p4960
(lp4961
S'197'
p4962
aS'297'
p4963
asS'390'
p4964
(lp4965
S'318'
p4966
aS'300'
p4967
asS'722'
p4968
(lp4969
S'253'
p4970
aS'300'
p4971
asS'723'
p4972
(lp4973
S'414'
p4974
aS'300'
p4975
asS'720'
p4976
(lp4977
S'148'
p4978
aS'238'
p4979
asS'721'
p4980
(lp4981
S'255'
p4982
aS'300'
p4983
asS'1160'
p4984
(lp4985
S'274'
p4986
aS'300'
p4987
asS'1035'
p4988
(lp4989
S'173'
p4990
aS'272'
p4991
asS'1394'
p4992
(lp4993
S'275'
p4994
aS'300'
p4995
asS'1444'
p4996
(lp4997
S'365'
p4998
aS'300'
p4999
asS'728'
p5000
(lp5001
S'288'
p5002
aS'300'
p5003
asS'729'
p5004
(lp5005
S'317'
p5006
aS'300'
p5007
asS'151'
p5008
(lp5009
S'209'
p5010
aS'300'
p5011
asS'604'
p5012
(lp5013
S'309'
p5014
aS'300'
p5015
asS'607'
p5016
(lp5017
S'217'
p5018
aS'300'
p5019
asS'152'
p5020
(lp5021
S'284'
p5022
aS'300'
p5023
asS'155'
p5024
(lp5025
S'331'
p5026
aS'300'
p5027
asS'154'
p5028
(lp5029
S'162'
p5030
aS'237'
p5031
asS'157'
p5032
(lp5033
S'200'
p5034
aS'300'
p5035
asS'156'
p5036
(lp5037
S'221'
p5038
aS'300'
p5039
asS'159'
p5040
(lp5041
S'271'
p5042
aS'300'
p5043
asS'1204'
p5044
(lp5045
S'240'
p5046
aS'300'
p5047
asS'1207'
p5048
(lp5049
S'246'
p5050
aS'273'
p5051
asS'1206'
p5052
(lp5053
S'286'
p5054
aS'300'
p5055
asS'609'
p5056
(lp5057
S'285'
p5058
aS'300'
p5059
asS'608'
p5060
(lp5061
S'359'
p5062
aS'300'
p5063
asS'1203'
p5064
(lp5065
S'257'
p5066
aS'300'
p5067
asS'1202'
p5068
(lp5069
S'281'
p5070
aS'300'
p5071
asS'1211'
p5072
(lp5073
S'205'
p5074
aS'296'
p5075
asS'976'
p5076
(lp5077
S'195'
p5078
aS'242'
p5079
asS'1161'
p5080
(lp5081
S'226'
p5082
aS'298'
p5083
asS'634'
p5084
(lp5085
S'260'
p5086
aS'300'
p5087
asS'1443'
p5088
(lp5089
S'178'
p5090
aS'224'
p5091
asS'399'
p5092
(lp5093
S'275'
p5094
aS'270'
p5095
asS'635'
p5096
(lp5097
S'147'
p5098
aS'183'
p5099
asS'959'
p5100
(lp5101
S'309'
p5102
aS'294'
p5103
asS'958'
p5104
(lp5105
S'231'
p5106
aS'300'
p5107
asS'398'
p5108
(lp5109
S'311'
p5110
aS'300'
p5111
asS'1214'
p5112
(lp5113
S'165'
p5114
aS'296'
p5115
asS'48'
p5116
(lp5117
S'158'
p5118
aS'245'
p5119
asS'49'
p5120
(lp5121
S'317'
p5122
aS'300'
p5123
asS'46'
p5124
(lp5125
S'262'
p5126
aS'300'
p5127
asS'47'
p5128
(lp5129
S'289'
p5130
aS'300'
p5131
asS'44'
p5132
(lp5133
S'247'
p5134
aS'300'
p5135
asS'45'
p5136
(lp5137
S'302'
p5138
aS'300'
p5139
asS'42'
p5140
(lp5141
S'203'
p5142
aS'280'
p5143
asS'43'
p5144
(lp5145
S'190'
p5146
aS'284'
p5147
asS'40'
p5148
(lp5149
S'329'
p5150
aS'300'
p5151
asS'41'
p5152
(lp5153
S'234'
p5154
aS'300'
p5155
asS'1111'
p5156
(lp5157
S'300'
p5158
aS'300'
p5159
asS'638'
p5160
(lp5161
S'296'
p5162
aS'300'
p5163
asS'1113'
p5164
(lp5165
S'285'
p5166
aS'300'
p5167
asS'1112'
p5168
(lp5169
S'343'
p5170
aS'300'
p5171
asS'5'
p5172
(lp5173
S'375'
p5174
aS'300'
p5175
asS'1114'
p5176
(lp5177
S'132'
p5178
aS'274'
p5179
asS'1117'
p5180
(lp5181
S'264'
p5182
aS'300'
p5183
asS'639'
p5184
(lp5185
S'260'
p5186
aS'300'
p5187
asS'1119'
p5188
(lp5189
S'94'
p5190
aS'126'
p5191
asS'1118'
p5192
(lp5193
S'209'
p5194
aS'280'
p5195
asS'1290'
p5196
(lp5197
S'253'
p5198
aS'300'
p5199
asS'1291'
p5200
(lp5201
S'174'
p5202
aS'248'
p5203
asS'1296'
p5204
(lp5205
S'85'
p5206
aS'181'
p5207
asS'1173'
p5208
(lp5209
S'194'
p5210
aS'279'
p5211
asS'1260'
p5212
(lp5213
S'276'
p5214
aS'300'
p5215
asS'1295'
p5216
(lp5217
S'200'
p5218
aS'285'
p5219
asS'1219'
p5220
(lp5221
S'359'
p5222
aS'300'
p5223
asS'1360'
p5224
(lp5225
S'270'
p5226
aS'300'
p5227
asS'1357'
p5228
(lp5229
S'227'
p5230
aS'300'
p5231
asS'1358'
p5232
(lp5233
S'229'
p5234
aS'282'
p5235
asS'1445'
p5236
(lp5237
S'229'
p5238
aS'300'
p5239
asS'1217'
p5240
(lp5241
S'324'
p5242
aS'301'
p5243
asS'1410'
p5244
(lp5245
S'198'
p5246
aS'300'
p5247
asS'1163'
p5248
(lp5249
S'195'
p5250
aS'282'
p5251
asS'1355'
p5252
(lp5253
S'149'
p5254
aS'263'
p5255
asS'489'
p5256
(lp5257
S'328'
p5258
aS'300'
p5259
asS'488'
p5260
(lp5261
S'194'
p5262
aS'270'
p5263
asS'487'
p5264
(lp5265
S'326'
p5266
aS'300'
p5267
asS'486'
p5268
(lp5269
S'224'
p5270
aS'298'
p5271
asS'485'
p5272
(lp5273
S'151'
p5274
aS'238'
p5275
asS'484'
p5276
(lp5277
S'250'
p5278
aS'300'
p5279
asS'483'
p5280
(lp5281
S'118'
p5282
aS'149'
p5283
asS'482'
p5284
(lp5285
S'239'
p5286
aS'300'
p5287
asS'481'
p5288
(lp5289
S'211'
p5290
aS'293'
p5291
asS'480'
p5292
(lp5293
S'340'
p5294
aS'300'
p5295
asS'1366'
p5296
(lp5297
S'330'
p5298
aS'300'
p5299
asS'955'
p5300
(lp5301
S'37'
p5302
aS'33'
p5303
asS'1201'
p5304
(lp5305
S'254'
p5306
aS'300'
p5307
asS'1395'
p5308
(lp5309
S'222'
p5310
aS'242'
p5311
asS'1382'
p5312
(lp5313
S'210'
p5314
aS'300'
p5315
asS'472'
p5316
(lp5317
S'250'
p5318
aS'300'
p5319
asS'473'
p5320
(lp5321
S'280'
p5322
aS'300'
p5323
asS'470'
p5324
(lp5325
S'201'
p5326
aS'252'
p5327
asS'471'
p5328
(lp5329
S'201'
p5330
aS'300'
p5331
asS'476'
p5332
(lp5333
S'182'
p5334
aS'300'
p5335
asS'477'
p5336
(lp5337
S'211'
p5338
aS'280'
p5339
asS'474'
p5340
(lp5341
S'245'
p5342
aS'296'
p5343
asS'1361'
p5344
(lp5345
S'223'
p5346
aS'300'
p5347
asS'479'
p5348
(lp5349
S'224'
p5350
aS'300'
p5351
asS'1368'
p5352
(lp5353
S'236'
p5354
aS'270'
p5355
asS'1369'
p5356
(lp5357
S'221'
p5358
aS'299'
p5359
as.